	.text
	.file	"src/mmap-io.cc"
	.globl	_Z15do_mmap_cleanupPcPv
	.align	16, 0x90
	.type	_Z15do_mmap_cleanupPcPv,@function
_Z15do_mmap_cleanupPcPv:                # @_Z15do_mmap_cleanupPcPv
	.cfi_startproc
# BB#0:
	pushq	%rbp
.Ltmp0:
	.cfi_def_cfa_offset 16
.Ltmp1:
	.cfi_offset %rbp, -16
	movq	%rsp, %rbp
.Ltmp2:
	.cfi_def_cfa_register %rbp
	subq	$48, %rsp
	movq	%rdi, -8(%rbp)
	movq	%rsi, -16(%rbp)
	movq	-16(%rbp), %rsi
	movq	%rsi, -24(%rbp)
	movq	-8(%rbp), %rdi
	movq	-24(%rbp), %rsi
	movq	8(%rsi), %rsi
	callq	munmap
	movq	-24(%rbp), %rsi
	cmpq	$0, %rsi
	movl	%eax, -28(%rbp)         # 4-byte Spill
	movq	%rsi, -40(%rbp)         # 8-byte Spill
	je	.LBB0_2
# BB#1:
	movq	-40(%rbp), %rax         # 8-byte Reload
	movq	%rax, %rdi
	callq	_ZdlPv
.LBB0_2:
	addq	$48, %rsp
	popq	%rbp
	retq
.Ltmp3:
	.size	_Z15do_mmap_cleanupPcPv, .Ltmp3-_Z15do_mmap_cleanupPcPv
	.cfi_endproc

	.globl	_Z8mmap_mapRKN3Nan20FunctionCallbackInfoIN2v85ValueEEE
	.align	16, 0x90
	.type	_Z8mmap_mapRKN3Nan20FunctionCallbackInfoIN2v85ValueEEE,@function
_Z8mmap_mapRKN3Nan20FunctionCallbackInfoIN2v85ValueEEE: # @_Z8mmap_mapRKN3Nan20FunctionCallbackInfoIN2v85ValueEEE
	.cfi_startproc
	.cfi_personality 3, __gxx_personality_v0
.Leh_func_begin1:
	.cfi_lsda 3, .Lexception1
# BB#0:
	pushq	%rbp
.Ltmp88:
	.cfi_def_cfa_offset 16
.Ltmp89:
	.cfi_offset %rbp, -16
	movq	%rsp, %rbp
.Ltmp90:
	.cfi_def_cfa_register %rbp
	subq	$1616, %rsp             # imm = 0x650
	leaq	-992(%rbp), %rax
	movq	%rdi, -968(%rbp)
	movq	%rax, %rdi
	callq	_ZN3Nan11HandleScopeC2Ev
	leaq	-992(%rbp), %rdi
	callq	_ZN3Nan11HandleScopeD2Ev
	movq	-968(%rbp), %rdi
	callq	_ZNK3Nan20FunctionCallbackInfoIN2v85ValueEE6LengthEv
	cmpl	$4, %eax
	jge	.LBB1_8
# BB#1:
	movq	-968(%rbp), %rdi
	callq	_ZNK3Nan20FunctionCallbackInfoIN2v85ValueEE6LengthEv
	cmpl	$6, %eax
	jle	.LBB1_8
# BB#2:
	movq	$.L.str, -880(%rbp)
	leaq	-904(%rbp), %rdi
	callq	_ZN3Nan11HandleScopeC2Ev
.Ltmp79:
	callq	_ZN2v87Isolate10GetCurrentEv
.Ltmp80:
	movq	%rax, -1328(%rbp)       # 8-byte Spill
	jmp	.LBB1_3
.LBB1_3:
	movq	-880(%rbp), %rdi
.Ltmp81:
	callq	_ZN3Nan3NewEPKc
.Ltmp82:
	movq	%rax, -1336(%rbp)       # 8-byte Spill
	jmp	.LBB1_4
.LBB1_4:
	movq	-1336(%rbp), %rax       # 8-byte Reload
	movq	%rax, -952(%rbp)
	leaq	-952(%rbp), %rcx
	movq	%rcx, -872(%rbp)
	movq	-952(%rbp), %rcx
	movq	%rcx, -864(%rbp)
	movq	%rcx, -944(%rbp)
	movq	%rcx, -936(%rbp)
.Ltmp83:
	movq	%rcx, %rdi
	callq	_ZN2v89Exception5ErrorENS_6HandleINS_6StringEEE
.Ltmp84:
	movq	%rax, -1344(%rbp)       # 8-byte Spill
	jmp	.LBB1_5
.LBB1_5:
	movq	-1344(%rbp), %rax       # 8-byte Reload
	movq	%rax, -928(%rbp)
.Ltmp85:
	movq	-1328(%rbp), %rdi       # 8-byte Reload
	movq	%rax, %rsi
	callq	_ZN2v87Isolate14ThrowExceptionENS_5LocalINS_5ValueEEE
.Ltmp86:
	movq	%rax, -1352(%rbp)       # 8-byte Spill
	jmp	.LBB1_7
.LBB1_6:
.Ltmp87:
	leaq	-904(%rbp), %rdi
	movl	%edx, %ecx
	movq	%rax, -912(%rbp)
	movl	%ecx, -916(%rbp)
	callq	_ZN3Nan11HandleScopeD2Ev
	movq	-912(%rbp), %rax
	movq	%rax, -1360(%rbp)       # 8-byte Spill
	jmp	.LBB1_80
.LBB1_7:                                # %_ZN3Nan10ThrowErrorEPKc.exit
	leaq	-904(%rbp), %rdi
	movq	-1352(%rbp), %rax       # 8-byte Reload
	movq	%rax, -960(%rbp)
	callq	_ZN3Nan11HandleScopeD2Ev
	jmp	.LBB1_78
.LBB1_8:
	xorl	%esi, %esi
	movq	-968(%rbp), %rdi
	callq	_ZNK3Nan20FunctionCallbackInfoIN2v85ValueEEixEi
	leaq	-1000(%rbp), %rdi
	movq	%rax, -1000(%rbp)
	movq	%rdi, -856(%rbp)
	movq	-856(%rbp), %rax
	movq	(%rax), %rdi
	callq	_ZNK2v85Value8IsNumberEv
	testb	$1, %al
	jne	.LBB1_15
# BB#9:
	movq	$.L.str1, -768(%rbp)
	leaq	-792(%rbp), %rdi
	callq	_ZN3Nan11HandleScopeC2Ev
.Ltmp4:
	callq	_ZN2v87Isolate10GetCurrentEv
.Ltmp5:
	movq	%rax, -1368(%rbp)       # 8-byte Spill
	jmp	.LBB1_10
.LBB1_10:
	movq	-768(%rbp), %rdi
.Ltmp6:
	callq	_ZN3Nan3NewEPKc
.Ltmp7:
	movq	%rax, -1376(%rbp)       # 8-byte Spill
	jmp	.LBB1_11
.LBB1_11:
	movq	-1376(%rbp), %rax       # 8-byte Reload
	movq	%rax, -840(%rbp)
	leaq	-840(%rbp), %rcx
	movq	%rcx, -760(%rbp)
	movq	-840(%rbp), %rcx
	movq	%rcx, -752(%rbp)
	movq	%rcx, -832(%rbp)
	movq	%rcx, -824(%rbp)
.Ltmp8:
	movq	%rcx, %rdi
	callq	_ZN2v89Exception5ErrorENS_6HandleINS_6StringEEE
.Ltmp9:
	movq	%rax, -1384(%rbp)       # 8-byte Spill
	jmp	.LBB1_12
.LBB1_12:
	movq	-1384(%rbp), %rax       # 8-byte Reload
	movq	%rax, -816(%rbp)
.Ltmp10:
	movq	-1368(%rbp), %rdi       # 8-byte Reload
	movq	%rax, %rsi
	callq	_ZN2v87Isolate14ThrowExceptionENS_5LocalINS_5ValueEEE
.Ltmp11:
	movq	%rax, -1392(%rbp)       # 8-byte Spill
	jmp	.LBB1_14
.LBB1_13:
.Ltmp12:
	leaq	-792(%rbp), %rdi
	movl	%edx, %ecx
	movq	%rax, -800(%rbp)
	movl	%ecx, -804(%rbp)
	callq	_ZN3Nan11HandleScopeD2Ev
	movq	-800(%rbp), %rax
	movq	%rax, -1360(%rbp)       # 8-byte Spill
	jmp	.LBB1_80
.LBB1_14:                               # %_ZN3Nan10ThrowErrorEPKc.exit2
	leaq	-792(%rbp), %rdi
	movq	-1392(%rbp), %rax       # 8-byte Reload
	movq	%rax, -848(%rbp)
	callq	_ZN3Nan11HandleScopeD2Ev
	jmp	.LBB1_78
.LBB1_15:
	movl	$1, %esi
	movq	-968(%rbp), %rdi
	callq	_ZNK3Nan20FunctionCallbackInfoIN2v85ValueEEixEi
	leaq	-1008(%rbp), %rdi
	movq	%rax, -1008(%rbp)
	movq	%rdi, -744(%rbp)
	movq	-744(%rbp), %rax
	movq	(%rax), %rdi
	callq	_ZNK2v85Value8IsNumberEv
	testb	$1, %al
	jne	.LBB1_22
# BB#16:
	movq	$.L.str2, -656(%rbp)
	leaq	-680(%rbp), %rdi
	callq	_ZN3Nan11HandleScopeC2Ev
.Ltmp13:
	callq	_ZN2v87Isolate10GetCurrentEv
.Ltmp14:
	movq	%rax, -1400(%rbp)       # 8-byte Spill
	jmp	.LBB1_17
.LBB1_17:
	movq	-656(%rbp), %rdi
.Ltmp15:
	callq	_ZN3Nan3NewEPKc
.Ltmp16:
	movq	%rax, -1408(%rbp)       # 8-byte Spill
	jmp	.LBB1_18
.LBB1_18:
	movq	-1408(%rbp), %rax       # 8-byte Reload
	movq	%rax, -728(%rbp)
	leaq	-728(%rbp), %rcx
	movq	%rcx, -648(%rbp)
	movq	-728(%rbp), %rcx
	movq	%rcx, -640(%rbp)
	movq	%rcx, -720(%rbp)
	movq	%rcx, -712(%rbp)
.Ltmp17:
	movq	%rcx, %rdi
	callq	_ZN2v89Exception5ErrorENS_6HandleINS_6StringEEE
.Ltmp18:
	movq	%rax, -1416(%rbp)       # 8-byte Spill
	jmp	.LBB1_19
.LBB1_19:
	movq	-1416(%rbp), %rax       # 8-byte Reload
	movq	%rax, -704(%rbp)
.Ltmp19:
	movq	-1400(%rbp), %rdi       # 8-byte Reload
	movq	%rax, %rsi
	callq	_ZN2v87Isolate14ThrowExceptionENS_5LocalINS_5ValueEEE
.Ltmp20:
	movq	%rax, -1424(%rbp)       # 8-byte Spill
	jmp	.LBB1_21
.LBB1_20:
.Ltmp21:
	leaq	-680(%rbp), %rdi
	movl	%edx, %ecx
	movq	%rax, -688(%rbp)
	movl	%ecx, -692(%rbp)
	callq	_ZN3Nan11HandleScopeD2Ev
	movq	-688(%rbp), %rax
	movq	%rax, -1360(%rbp)       # 8-byte Spill
	jmp	.LBB1_80
.LBB1_21:                               # %_ZN3Nan10ThrowErrorEPKc.exit4
	leaq	-680(%rbp), %rdi
	movq	-1424(%rbp), %rax       # 8-byte Reload
	movq	%rax, -736(%rbp)
	callq	_ZN3Nan11HandleScopeD2Ev
	jmp	.LBB1_78
.LBB1_22:
	movl	$2, %esi
	movq	-968(%rbp), %rdi
	callq	_ZNK3Nan20FunctionCallbackInfoIN2v85ValueEEixEi
	leaq	-1016(%rbp), %rdi
	movq	%rax, -1016(%rbp)
	movq	%rdi, -632(%rbp)
	movq	-632(%rbp), %rax
	movq	(%rax), %rdi
	callq	_ZNK2v85Value8IsNumberEv
	testb	$1, %al
	jne	.LBB1_29
# BB#23:
	movq	$.L.str3, -544(%rbp)
	leaq	-568(%rbp), %rdi
	callq	_ZN3Nan11HandleScopeC2Ev
.Ltmp22:
	callq	_ZN2v87Isolate10GetCurrentEv
.Ltmp23:
	movq	%rax, -1432(%rbp)       # 8-byte Spill
	jmp	.LBB1_24
.LBB1_24:
	movq	-544(%rbp), %rdi
.Ltmp24:
	callq	_ZN3Nan3NewEPKc
.Ltmp25:
	movq	%rax, -1440(%rbp)       # 8-byte Spill
	jmp	.LBB1_25
.LBB1_25:
	movq	-1440(%rbp), %rax       # 8-byte Reload
	movq	%rax, -616(%rbp)
	leaq	-616(%rbp), %rcx
	movq	%rcx, -536(%rbp)
	movq	-616(%rbp), %rcx
	movq	%rcx, -528(%rbp)
	movq	%rcx, -608(%rbp)
	movq	%rcx, -600(%rbp)
.Ltmp26:
	movq	%rcx, %rdi
	callq	_ZN2v89Exception5ErrorENS_6HandleINS_6StringEEE
.Ltmp27:
	movq	%rax, -1448(%rbp)       # 8-byte Spill
	jmp	.LBB1_26
.LBB1_26:
	movq	-1448(%rbp), %rax       # 8-byte Reload
	movq	%rax, -592(%rbp)
.Ltmp28:
	movq	-1432(%rbp), %rdi       # 8-byte Reload
	movq	%rax, %rsi
	callq	_ZN2v87Isolate14ThrowExceptionENS_5LocalINS_5ValueEEE
.Ltmp29:
	movq	%rax, -1456(%rbp)       # 8-byte Spill
	jmp	.LBB1_28
.LBB1_27:
.Ltmp30:
	leaq	-568(%rbp), %rdi
	movl	%edx, %ecx
	movq	%rax, -576(%rbp)
	movl	%ecx, -580(%rbp)
	callq	_ZN3Nan11HandleScopeD2Ev
	movq	-576(%rbp), %rax
	movq	%rax, -1360(%rbp)       # 8-byte Spill
	jmp	.LBB1_80
.LBB1_28:                               # %_ZN3Nan10ThrowErrorEPKc.exit6
	leaq	-568(%rbp), %rdi
	movq	-1456(%rbp), %rax       # 8-byte Reload
	movq	%rax, -624(%rbp)
	callq	_ZN3Nan11HandleScopeD2Ev
	jmp	.LBB1_78
.LBB1_29:
	movl	$3, %esi
	movq	-968(%rbp), %rdi
	callq	_ZNK3Nan20FunctionCallbackInfoIN2v85ValueEEixEi
	leaq	-1024(%rbp), %rdi
	movq	%rax, -1024(%rbp)
	movq	%rdi, -520(%rbp)
	movq	-520(%rbp), %rax
	movq	(%rax), %rdi
	callq	_ZNK2v85Value8IsNumberEv
	testb	$1, %al
	jne	.LBB1_36
# BB#30:
	movq	$.L.str4, -432(%rbp)
	leaq	-456(%rbp), %rdi
	callq	_ZN3Nan11HandleScopeC2Ev
.Ltmp31:
	callq	_ZN2v87Isolate10GetCurrentEv
.Ltmp32:
	movq	%rax, -1464(%rbp)       # 8-byte Spill
	jmp	.LBB1_31
.LBB1_31:
	movq	-432(%rbp), %rdi
.Ltmp33:
	callq	_ZN3Nan3NewEPKc
.Ltmp34:
	movq	%rax, -1472(%rbp)       # 8-byte Spill
	jmp	.LBB1_32
.LBB1_32:
	movq	-1472(%rbp), %rax       # 8-byte Reload
	movq	%rax, -504(%rbp)
	leaq	-504(%rbp), %rcx
	movq	%rcx, -424(%rbp)
	movq	-504(%rbp), %rcx
	movq	%rcx, -416(%rbp)
	movq	%rcx, -496(%rbp)
	movq	%rcx, -488(%rbp)
.Ltmp35:
	movq	%rcx, %rdi
	callq	_ZN2v89Exception5ErrorENS_6HandleINS_6StringEEE
.Ltmp36:
	movq	%rax, -1480(%rbp)       # 8-byte Spill
	jmp	.LBB1_33
.LBB1_33:
	movq	-1480(%rbp), %rax       # 8-byte Reload
	movq	%rax, -480(%rbp)
.Ltmp37:
	movq	-1464(%rbp), %rdi       # 8-byte Reload
	movq	%rax, %rsi
	callq	_ZN2v87Isolate14ThrowExceptionENS_5LocalINS_5ValueEEE
.Ltmp38:
	movq	%rax, -1488(%rbp)       # 8-byte Spill
	jmp	.LBB1_35
.LBB1_34:
.Ltmp39:
	leaq	-456(%rbp), %rdi
	movl	%edx, %ecx
	movq	%rax, -464(%rbp)
	movl	%ecx, -468(%rbp)
	callq	_ZN3Nan11HandleScopeD2Ev
	movq	-464(%rbp), %rax
	movq	%rax, -1360(%rbp)       # 8-byte Spill
	jmp	.LBB1_80
.LBB1_35:                               # %_ZN3Nan10ThrowErrorEPKc.exit8
	leaq	-456(%rbp), %rdi
	movq	-1488(%rbp), %rax       # 8-byte Reload
	movq	%rax, -512(%rbp)
	callq	_ZN3Nan11HandleScopeD2Ev
	jmp	.LBB1_78
.LBB1_36:
	xorl	%esi, %esi
	movq	$0, -1032(%rbp)
	movq	-968(%rbp), %rdi
	callq	_ZNK3Nan20FunctionCallbackInfoIN2v85ValueEEixEi
	movq	%rax, -1048(%rbp)
	movq	-1048(%rbp), %rax
	movq	%rax, -400(%rbp)
	movq	-400(%rbp), %rax
	movq	%rax, -408(%rbp)
	movq	-408(%rbp), %rdi
	callq	_ZN3Nan3imp9ToFactoryIiE7convertEN2v85LocalINS3_5ValueEEE
	movl	$1, %esi
	leaq	-1056(%rbp), %rdi
	movq	%rax, -392(%rbp)
	movq	-392(%rbp), %rax
	movq	%rax, -1056(%rbp)
	movq	%rdi, -384(%rbp)
	movq	-384(%rbp), %rax
	movslq	4(%rax), %rax
	movq	%rax, -1040(%rbp)
	movq	-968(%rbp), %rdi
	callq	_ZNK3Nan20FunctionCallbackInfoIN2v85ValueEEixEi
	leaq	-1072(%rbp), %rdi
	movq	%rax, -1072(%rbp)
	movq	%rdi, -376(%rbp)
	movq	-376(%rbp), %rax
	movq	(%rax), %rdi
	callq	_ZNK2v85Value12IntegerValueEv
	movl	$2, %esi
	movl	%eax, %ecx
	movl	%ecx, -1060(%rbp)
	movq	-968(%rbp), %rdi
	callq	_ZNK3Nan20FunctionCallbackInfoIN2v85ValueEEixEi
	leaq	-1088(%rbp), %rdi
	movq	%rax, -1088(%rbp)
	movq	%rdi, -368(%rbp)
	movq	-368(%rbp), %rax
	movq	(%rax), %rdi
	callq	_ZNK2v85Value9ToIntegerEv
	leaq	-1096(%rbp), %rdi
	movq	%rax, -1096(%rbp)
	movq	%rdi, -360(%rbp)
	movq	-360(%rbp), %rax
	movq	(%rax), %rdi
	callq	_ZNK2v87Integer5ValueEv
	movl	$3, %esi
	movl	%eax, %ecx
	movl	%ecx, -1076(%rbp)
	movq	-968(%rbp), %rdi
	callq	_ZNK3Nan20FunctionCallbackInfoIN2v85ValueEEixEi
	leaq	-1112(%rbp), %rdi
	movq	%rax, -1112(%rbp)
	movq	%rdi, -352(%rbp)
	movq	-352(%rbp), %rax
	movq	(%rax), %rdi
	callq	_ZNK2v85Value9ToIntegerEv
	leaq	-1120(%rbp), %rdi
	movq	%rax, -1120(%rbp)
	movq	%rdi, -344(%rbp)
	movq	-344(%rbp), %rax
	movq	(%rax), %rdi
	callq	_ZNK2v87Integer5ValueEv
	movl	$4, %esi
	movl	%eax, %ecx
	movl	%ecx, -1100(%rbp)
	movq	-968(%rbp), %rdi
	callq	_ZNK3Nan20FunctionCallbackInfoIN2v85ValueEEixEi
	leaq	-1136(%rbp), %rdi
	movq	%rax, -1136(%rbp)
	movq	%rdi, -336(%rbp)
	movq	-336(%rbp), %rax
	movq	(%rax), %rdi
	callq	_ZNK2v85Value9ToIntegerEv
	leaq	-1144(%rbp), %rdi
	movq	%rax, -1144(%rbp)
	movq	%rdi, -328(%rbp)
	movq	-328(%rbp), %rax
	movq	(%rax), %rdi
	callq	_ZNK2v87Integer5ValueEv
	movl	$5, %esi
	movq	%rax, -1128(%rbp)
	movq	-968(%rbp), %rdi
	callq	_ZNK3Nan20FunctionCallbackInfoIN2v85ValueEEixEi
	leaq	-1160(%rbp), %rdi
	movq	%rax, -1160(%rbp)
	movq	%rdi, -320(%rbp)
	movq	-320(%rbp), %rax
	movq	(%rax), %rdi
	callq	_ZNK2v85Value9ToIntegerEv
	leaq	-1168(%rbp), %rdi
	movq	%rax, -1168(%rbp)
	movq	%rdi, -312(%rbp)
	movq	-312(%rbp), %rax
	movq	(%rax), %rdi
	callq	_ZNK2v87Integer5ValueEv
	xorl	%ecx, %ecx
	movl	%ecx, %edi
	movl	%eax, %ecx
	movl	%ecx, -1148(%rbp)
	movq	-1040(%rbp), %rsi
	movl	-1060(%rbp), %edx
	movl	-1076(%rbp), %ecx
	movl	-1100(%rbp), %r8d
	movq	-1128(%rbp), %r9
	callq	mmap
	movq	$-1, %rsi
	movq	%rax, -1176(%rbp)
	cmpq	%rsi, -1176(%rbp)
	jne	.LBB1_56
# BB#37:
	leaq	-1200(%rbp), %rax
	movq	%rax, %rdi
	movq	%rax, -1496(%rbp)       # 8-byte Spill
	callq	_ZNSaIcEC1Ev
.Ltmp58:
	movl	$.L.str5, %ecx
	movl	%ecx, %esi
	leaq	-1192(%rbp), %rdi
	movq	-1496(%rbp), %rdx       # 8-byte Reload
	callq	_ZNSsC1EPKcRKSaIcE
.Ltmp59:
	jmp	.LBB1_38
.LBB1_38:
	callq	__errno_location
	movl	(%rax), %esi
.Ltmp61:
	leaq	-1224(%rbp), %rdi
	callq	_ZSt9to_stringi
.Ltmp62:
	jmp	.LBB1_39
.LBB1_39:
.Ltmp64:
	leaq	-1184(%rbp), %rdi
	leaq	-1192(%rbp), %rsi
	leaq	-1224(%rbp), %rdx
	callq	_ZStplIcSt11char_traitsIcESaIcEESbIT_T0_T1_EOS6_S7_
.Ltmp65:
	jmp	.LBB1_40
.LBB1_40:
	leaq	-1184(%rbp), %rdi
	callq	_ZNKSs5c_strEv
	movq	%rax, -224(%rbp)
.Ltmp67:
	leaq	-248(%rbp), %rdi
	callq	_ZN3Nan11HandleScopeC2Ev
.Ltmp68:
	jmp	.LBB1_41
.LBB1_41:                               # %.noexc
.Ltmp70:
	callq	_ZN2v87Isolate10GetCurrentEv
.Ltmp71:
	movq	%rax, -1504(%rbp)       # 8-byte Spill
	jmp	.LBB1_42
.LBB1_42:
	movq	-224(%rbp), %rdi
.Ltmp72:
	callq	_ZN3Nan3NewEPKc
.Ltmp73:
	movq	%rax, -1512(%rbp)       # 8-byte Spill
	jmp	.LBB1_43
.LBB1_43:
	movq	-1512(%rbp), %rax       # 8-byte Reload
	movq	%rax, -296(%rbp)
	leaq	-296(%rbp), %rcx
	movq	%rcx, -216(%rbp)
	movq	-296(%rbp), %rcx
	movq	%rcx, -208(%rbp)
	movq	%rcx, -288(%rbp)
	movq	%rcx, -280(%rbp)
.Ltmp74:
	movq	%rcx, %rdi
	callq	_ZN2v89Exception5ErrorENS_6HandleINS_6StringEEE
.Ltmp75:
	movq	%rax, -1520(%rbp)       # 8-byte Spill
	jmp	.LBB1_44
.LBB1_44:
	movq	-1520(%rbp), %rax       # 8-byte Reload
	movq	%rax, -272(%rbp)
.Ltmp76:
	movq	-1504(%rbp), %rdi       # 8-byte Reload
	movq	%rax, %rsi
	callq	_ZN2v87Isolate14ThrowExceptionENS_5LocalINS_5ValueEEE
.Ltmp77:
	movq	%rax, -1528(%rbp)       # 8-byte Spill
	jmp	.LBB1_46
.LBB1_45:
.Ltmp78:
	movl	%edx, %ecx
	movq	%rax, -256(%rbp)
	movl	%ecx, -260(%rbp)
	leaq	-248(%rbp), %rdi
	callq	_ZN3Nan11HandleScopeD2Ev
	movq	-256(%rbp), %rax
	movl	-260(%rbp), %ecx
	movq	%rax, -1536(%rbp)       # 8-byte Spill
	movl	%ecx, -1540(%rbp)       # 4-byte Spill
	jmp	.LBB1_52
.LBB1_46:                               # %_ZN3Nan10ThrowErrorEPKc.exit10
	leaq	-248(%rbp), %rdi
	movq	-1528(%rbp), %rax       # 8-byte Reload
	movq	%rax, -304(%rbp)
	callq	_ZN3Nan11HandleScopeD2Ev
# BB#47:
	leaq	-1184(%rbp), %rdi
	callq	_ZNSsD1Ev
	leaq	-1224(%rbp), %rdi
	callq	_ZNSsD1Ev
	leaq	-1192(%rbp), %rdi
	callq	_ZNSsD1Ev
	leaq	-1200(%rbp), %rdi
	callq	_ZNSaIcED1Ev
	jmp	.LBB1_78
.LBB1_48:
.Ltmp60:
	movl	%edx, %ecx
	movq	%rax, -1208(%rbp)
	movl	%ecx, -1212(%rbp)
	jmp	.LBB1_55
.LBB1_49:
.Ltmp63:
	movl	%edx, %ecx
	movq	%rax, -1208(%rbp)
	movl	%ecx, -1212(%rbp)
	jmp	.LBB1_54
.LBB1_50:
.Ltmp66:
	movl	%edx, %ecx
	movq	%rax, -1208(%rbp)
	movl	%ecx, -1212(%rbp)
	jmp	.LBB1_53
.LBB1_51:
.Ltmp69:
	movl	%edx, %ecx
	movq	%rax, -1536(%rbp)       # 8-byte Spill
	movl	%ecx, -1540(%rbp)       # 4-byte Spill
	jmp	.LBB1_52
.LBB1_52:                               # %.body
	movl	-1540(%rbp), %eax       # 4-byte Reload
	movq	-1536(%rbp), %rcx       # 8-byte Reload
	leaq	-1184(%rbp), %rdi
	movq	%rcx, -1208(%rbp)
	movl	%eax, -1212(%rbp)
	callq	_ZNSsD1Ev
.LBB1_53:
	leaq	-1224(%rbp), %rdi
	callq	_ZNSsD1Ev
.LBB1_54:
	leaq	-1192(%rbp), %rdi
	callq	_ZNSsD1Ev
.LBB1_55:
	leaq	-1200(%rbp), %rdi
	callq	_ZNSaIcED1Ev
	jmp	.LBB1_79
.LBB1_56:
	cmpl	$0, -1148(%rbp)
	je	.LBB1_58
# BB#57:
	leaq	-1240(%rbp), %rdi
	movl	$1, %esi
	leaq	-1272(%rbp), %rdx
	movq	-1176(%rbp), %rax
	movq	%rax, -1272(%rbp)
	movq	-1040(%rbp), %rax
	movq	%rax, -1264(%rbp)
	movl	-1148(%rbp), %ecx
	movl	%ecx, -1256(%rbp)
	movl	-1100(%rbp), %ecx
	movl	%ecx, -1252(%rbp)
	movq	-1128(%rbp), %rax
	movq	%rax, -1248(%rbp)
	callq	_ZSt5asyncIZ8mmap_mapRKN3Nan20FunctionCallbackInfoIN2v85ValueEEEE3$_0JEESt6futureINSt9result_ofIFT_DpT0_EE4typeEESt6launchOSA_DpOSB_
	leaq	-1240(%rbp), %rdi
	callq	_ZNSt6futureIvED2Ev
.LBB1_58:
	movl	$16, %eax
	movl	%eax, %edi
	callq	_Znwm
	movq	%rax, %rdi
	movq	%rax, %rcx
	movq	-1176(%rbp), %rsi
	movq	-1040(%rbp), %rdx
.Ltmp40:
	movq	%rdi, -1552(%rbp)       # 8-byte Spill
	movq	%rax, %rdi
	movq	%rcx, -1560(%rbp)       # 8-byte Spill
	callq	_ZN4MMapC2EPcm
.Ltmp41:
	jmp	.LBB1_59
.LBB1_59:
	movabsq	$_Z15do_mmap_cleanupPcPv, %rax
	movq	-1560(%rbp), %rcx       # 8-byte Reload
	movq	%rcx, -1280(%rbp)
	movq	-1176(%rbp), %rdx
	movq	-1040(%rbp), %rsi
	movq	-1280(%rbp), %rdi
	movq	%rdx, -168(%rbp)
	movq	%rsi, -176(%rbp)
	movq	%rax, -184(%rbp)
	movq	%rdi, -192(%rbp)
	cmpq	$1073741823, -176(%rbp) # imm = 0x3FFFFFFF
	jbe	.LBB1_61
# BB#60:
	movabsq	$.L.str32, %rdi
	movabsq	$.L.str33, %rsi
	movl	$655, %edx              # imm = 0x28F
	movabsq	$.L__PRETTY_FUNCTION__._ZN3Nan9NewBufferEPcmPFvS0_PvES1_, %rcx
	callq	__assert_fail
.LBB1_61:                               # %_ZN3Nan9NewBufferEPcmPFvS0_PvES1_.exit
	callq	_ZN2v87Isolate10GetCurrentEv
	movq	-168(%rbp), %rsi
	movq	-176(%rbp), %rdx
	movq	-184(%rbp), %rcx
	movq	-192(%rbp), %r8
	movq	%rax, %rdi
	callq	_ZN4node6Buffer3NewEPN2v87IsolateEPcmPFvS4_PvES5_
	leaq	-1288(%rbp), %rcx
	leaq	-160(%rbp), %rdx
	movq	%rax, -200(%rbp)
	movq	-200(%rbp), %rax
	movq	%rax, -144(%rbp)
	movq	%rdx, -152(%rbp)
	movq	-152(%rbp), %rax
	movq	-144(%rbp), %rdx
	movq	%rdx, (%rax)
	movq	-160(%rbp), %rax
	movq	%rax, -1288(%rbp)
	movq	%rcx, -136(%rbp)
	movq	-136(%rbp), %rax
	movq	%rax, -128(%rbp)
	movq	-128(%rbp), %rax
	cmpq	$0, (%rax)
	jne	.LBB1_76
# BB#62:
	leaq	-1304(%rbp), %rax
	movq	%rax, %rdi
	movq	%rax, -1568(%rbp)       # 8-byte Spill
	callq	_ZNSaIcEC1Ev
.Ltmp43:
	movl	$.L.str6, %ecx
	movl	%ecx, %esi
	leaq	-1296(%rbp), %rdi
	movq	-1568(%rbp), %rdx       # 8-byte Reload
	callq	_ZNSsC1EPKcRKSaIcE
.Ltmp44:
	jmp	.LBB1_63
.LBB1_63:
	leaq	-1296(%rbp), %rdi
	callq	_ZNKSs5c_strEv
	movq	%rax, -40(%rbp)
.Ltmp46:
	leaq	-64(%rbp), %rdi
	callq	_ZN3Nan11HandleScopeC2Ev
.Ltmp47:
	jmp	.LBB1_64
.LBB1_64:                               # %.noexc12
.Ltmp49:
	callq	_ZN2v87Isolate10GetCurrentEv
.Ltmp50:
	movq	%rax, -1576(%rbp)       # 8-byte Spill
	jmp	.LBB1_65
.LBB1_65:
	movq	-40(%rbp), %rdi
.Ltmp51:
	callq	_ZN3Nan3NewEPKc
.Ltmp52:
	movq	%rax, -1584(%rbp)       # 8-byte Spill
	jmp	.LBB1_66
.LBB1_66:
	movq	-1584(%rbp), %rax       # 8-byte Reload
	movq	%rax, -112(%rbp)
	leaq	-112(%rbp), %rcx
	movq	%rcx, -32(%rbp)
	movq	-112(%rbp), %rcx
	movq	%rcx, -24(%rbp)
	movq	%rcx, -104(%rbp)
	movq	%rcx, -96(%rbp)
.Ltmp53:
	movq	%rcx, %rdi
	callq	_ZN2v89Exception5ErrorENS_6HandleINS_6StringEEE
.Ltmp54:
	movq	%rax, -1592(%rbp)       # 8-byte Spill
	jmp	.LBB1_67
.LBB1_67:
	movq	-1592(%rbp), %rax       # 8-byte Reload
	movq	%rax, -88(%rbp)
.Ltmp55:
	movq	-1576(%rbp), %rdi       # 8-byte Reload
	movq	%rax, %rsi
	callq	_ZN2v87Isolate14ThrowExceptionENS_5LocalINS_5ValueEEE
.Ltmp56:
	movq	%rax, -1600(%rbp)       # 8-byte Spill
	jmp	.LBB1_69
.LBB1_68:
.Ltmp57:
	movl	%edx, %ecx
	movq	%rax, -72(%rbp)
	movl	%ecx, -76(%rbp)
	leaq	-64(%rbp), %rdi
	callq	_ZN3Nan11HandleScopeD2Ev
	movq	-72(%rbp), %rax
	movl	-76(%rbp), %ecx
	movq	%rax, -1608(%rbp)       # 8-byte Spill
	movl	%ecx, -1612(%rbp)       # 4-byte Spill
	jmp	.LBB1_74
.LBB1_69:                               # %_ZN3Nan10ThrowErrorEPKc.exit15
	leaq	-64(%rbp), %rdi
	movq	-1600(%rbp), %rax       # 8-byte Reload
	movq	%rax, -120(%rbp)
	callq	_ZN3Nan11HandleScopeD2Ev
# BB#70:
	leaq	-1296(%rbp), %rdi
	callq	_ZNSsD1Ev
	leaq	-1304(%rbp), %rdi
	callq	_ZNSaIcED1Ev
	jmp	.LBB1_78
.LBB1_71:
.Ltmp42:
	movl	%edx, %ecx
	movq	%rax, -1208(%rbp)
	movl	%ecx, -1212(%rbp)
	movq	-1552(%rbp), %rdi       # 8-byte Reload
	callq	_ZdlPv
	jmp	.LBB1_79
.LBB1_72:
.Ltmp45:
	movl	%edx, %ecx
	movq	%rax, -1208(%rbp)
	movl	%ecx, -1212(%rbp)
	jmp	.LBB1_75
.LBB1_73:
.Ltmp48:
	movl	%edx, %ecx
	movq	%rax, -1608(%rbp)       # 8-byte Spill
	movl	%ecx, -1612(%rbp)       # 4-byte Spill
	jmp	.LBB1_74
.LBB1_74:                               # %.body13
	movl	-1612(%rbp), %eax       # 4-byte Reload
	movq	-1608(%rbp), %rcx       # 8-byte Reload
	leaq	-1296(%rbp), %rdi
	movq	%rcx, -1208(%rbp)
	movl	%eax, -1212(%rbp)
	callq	_ZNSsD1Ev
.LBB1_75:
	leaq	-1304(%rbp), %rdi
	callq	_ZNSaIcED1Ev
	jmp	.LBB1_79
.LBB1_76:
	movq	-968(%rbp), %rdi
	callq	_ZNK3Nan20FunctionCallbackInfoIN2v85ValueEE14GetReturnValueEv
	leaq	-1312(%rbp), %rdi
	leaq	-1320(%rbp), %rsi
	leaq	-1288(%rbp), %rcx
	movq	%rax, -1312(%rbp)
	movq	%rcx, -16(%rbp)
	movq	-16(%rbp), %rax
	movq	(%rax), %rax
	movq	%rax, -8(%rbp)
	movq	-8(%rbp), %rax
	movq	%rax, -1320(%rbp)
	callq	_ZN3Nan11ReturnValueIN2v85ValueEE3SetINS1_6ObjectEEEvRKNS1_5LocalIT_EE
# BB#77:
	jmp	.LBB1_78
.LBB1_78:
	addq	$1616, %rsp             # imm = 0x650
	popq	%rbp
	retq
.LBB1_79:
	movq	-1208(%rbp), %rax
	movq	%rax, -1360(%rbp)       # 8-byte Spill
.LBB1_80:                               # %unwind_resume
	movq	-1360(%rbp), %rax       # 8-byte Reload
	movq	%rax, %rdi
	callq	_Unwind_Resume
.Ltmp91:
	.size	_Z8mmap_mapRKN3Nan20FunctionCallbackInfoIN2v85ValueEEE, .Ltmp91-_Z8mmap_mapRKN3Nan20FunctionCallbackInfoIN2v85ValueEEE
	.cfi_endproc
.Leh_func_end1:
	.section	.gcc_except_table,"a",@progbits
	.align	4
GCC_except_table1:
.Lexception1:
	.byte	255                     # @LPStart Encoding = omit
	.byte	3                       # @TType Encoding = udata4
	.asciz	"\256\202\200"          # @TType base offset
	.byte	3                       # Call site Encoding = udata4
	.ascii	"\253\002"              # Call site table length
	.long	.Leh_func_begin1-.Leh_func_begin1 # >> Call Site 1 <<
	.long	.Ltmp79-.Leh_func_begin1 #   Call between .Leh_func_begin1 and .Ltmp79
	.long	0                       #     has no landing pad
	.byte	0                       #   On action: cleanup
	.long	.Ltmp79-.Leh_func_begin1 # >> Call Site 2 <<
	.long	.Ltmp86-.Ltmp79         #   Call between .Ltmp79 and .Ltmp86
	.long	.Ltmp87-.Leh_func_begin1 #     jumps to .Ltmp87
	.byte	0                       #   On action: cleanup
	.long	.Ltmp86-.Leh_func_begin1 # >> Call Site 3 <<
	.long	.Ltmp4-.Ltmp86          #   Call between .Ltmp86 and .Ltmp4
	.long	0                       #     has no landing pad
	.byte	0                       #   On action: cleanup
	.long	.Ltmp4-.Leh_func_begin1 # >> Call Site 4 <<
	.long	.Ltmp11-.Ltmp4          #   Call between .Ltmp4 and .Ltmp11
	.long	.Ltmp12-.Leh_func_begin1 #     jumps to .Ltmp12
	.byte	0                       #   On action: cleanup
	.long	.Ltmp11-.Leh_func_begin1 # >> Call Site 5 <<
	.long	.Ltmp13-.Ltmp11         #   Call between .Ltmp11 and .Ltmp13
	.long	0                       #     has no landing pad
	.byte	0                       #   On action: cleanup
	.long	.Ltmp13-.Leh_func_begin1 # >> Call Site 6 <<
	.long	.Ltmp20-.Ltmp13         #   Call between .Ltmp13 and .Ltmp20
	.long	.Ltmp21-.Leh_func_begin1 #     jumps to .Ltmp21
	.byte	0                       #   On action: cleanup
	.long	.Ltmp20-.Leh_func_begin1 # >> Call Site 7 <<
	.long	.Ltmp22-.Ltmp20         #   Call between .Ltmp20 and .Ltmp22
	.long	0                       #     has no landing pad
	.byte	0                       #   On action: cleanup
	.long	.Ltmp22-.Leh_func_begin1 # >> Call Site 8 <<
	.long	.Ltmp29-.Ltmp22         #   Call between .Ltmp22 and .Ltmp29
	.long	.Ltmp30-.Leh_func_begin1 #     jumps to .Ltmp30
	.byte	0                       #   On action: cleanup
	.long	.Ltmp29-.Leh_func_begin1 # >> Call Site 9 <<
	.long	.Ltmp31-.Ltmp29         #   Call between .Ltmp29 and .Ltmp31
	.long	0                       #     has no landing pad
	.byte	0                       #   On action: cleanup
	.long	.Ltmp31-.Leh_func_begin1 # >> Call Site 10 <<
	.long	.Ltmp38-.Ltmp31         #   Call between .Ltmp31 and .Ltmp38
	.long	.Ltmp39-.Leh_func_begin1 #     jumps to .Ltmp39
	.byte	0                       #   On action: cleanup
	.long	.Ltmp38-.Leh_func_begin1 # >> Call Site 11 <<
	.long	.Ltmp58-.Ltmp38         #   Call between .Ltmp38 and .Ltmp58
	.long	0                       #     has no landing pad
	.byte	0                       #   On action: cleanup
	.long	.Ltmp58-.Leh_func_begin1 # >> Call Site 12 <<
	.long	.Ltmp59-.Ltmp58         #   Call between .Ltmp58 and .Ltmp59
	.long	.Ltmp60-.Leh_func_begin1 #     jumps to .Ltmp60
	.byte	0                       #   On action: cleanup
	.long	.Ltmp61-.Leh_func_begin1 # >> Call Site 13 <<
	.long	.Ltmp62-.Ltmp61         #   Call between .Ltmp61 and .Ltmp62
	.long	.Ltmp63-.Leh_func_begin1 #     jumps to .Ltmp63
	.byte	0                       #   On action: cleanup
	.long	.Ltmp64-.Leh_func_begin1 # >> Call Site 14 <<
	.long	.Ltmp65-.Ltmp64         #   Call between .Ltmp64 and .Ltmp65
	.long	.Ltmp66-.Leh_func_begin1 #     jumps to .Ltmp66
	.byte	0                       #   On action: cleanup
	.long	.Ltmp67-.Leh_func_begin1 # >> Call Site 15 <<
	.long	.Ltmp68-.Ltmp67         #   Call between .Ltmp67 and .Ltmp68
	.long	.Ltmp69-.Leh_func_begin1 #     jumps to .Ltmp69
	.byte	0                       #   On action: cleanup
	.long	.Ltmp70-.Leh_func_begin1 # >> Call Site 16 <<
	.long	.Ltmp77-.Ltmp70         #   Call between .Ltmp70 and .Ltmp77
	.long	.Ltmp78-.Leh_func_begin1 #     jumps to .Ltmp78
	.byte	0                       #   On action: cleanup
	.long	.Ltmp77-.Leh_func_begin1 # >> Call Site 17 <<
	.long	.Ltmp40-.Ltmp77         #   Call between .Ltmp77 and .Ltmp40
	.long	0                       #     has no landing pad
	.byte	0                       #   On action: cleanup
	.long	.Ltmp40-.Leh_func_begin1 # >> Call Site 18 <<
	.long	.Ltmp41-.Ltmp40         #   Call between .Ltmp40 and .Ltmp41
	.long	.Ltmp42-.Leh_func_begin1 #     jumps to .Ltmp42
	.byte	0                       #   On action: cleanup
	.long	.Ltmp41-.Leh_func_begin1 # >> Call Site 19 <<
	.long	.Ltmp43-.Ltmp41         #   Call between .Ltmp41 and .Ltmp43
	.long	0                       #     has no landing pad
	.byte	0                       #   On action: cleanup
	.long	.Ltmp43-.Leh_func_begin1 # >> Call Site 20 <<
	.long	.Ltmp44-.Ltmp43         #   Call between .Ltmp43 and .Ltmp44
	.long	.Ltmp45-.Leh_func_begin1 #     jumps to .Ltmp45
	.byte	0                       #   On action: cleanup
	.long	.Ltmp46-.Leh_func_begin1 # >> Call Site 21 <<
	.long	.Ltmp47-.Ltmp46         #   Call between .Ltmp46 and .Ltmp47
	.long	.Ltmp48-.Leh_func_begin1 #     jumps to .Ltmp48
	.byte	0                       #   On action: cleanup
	.long	.Ltmp49-.Leh_func_begin1 # >> Call Site 22 <<
	.long	.Ltmp56-.Ltmp49         #   Call between .Ltmp49 and .Ltmp56
	.long	.Ltmp57-.Leh_func_begin1 #     jumps to .Ltmp57
	.byte	0                       #   On action: cleanup
	.long	.Ltmp56-.Leh_func_begin1 # >> Call Site 23 <<
	.long	.Leh_func_end1-.Ltmp56  #   Call between .Ltmp56 and .Leh_func_end1
	.long	0                       #     has no landing pad
	.byte	0                       #   On action: cleanup
	.align	4

	.section	.text._ZN3Nan11HandleScopeC2Ev,"axG",@progbits,_ZN3Nan11HandleScopeC2Ev,comdat
	.weak	_ZN3Nan11HandleScopeC2Ev
	.align	16, 0x90
	.type	_ZN3Nan11HandleScopeC2Ev,@function
_ZN3Nan11HandleScopeC2Ev:               # @_ZN3Nan11HandleScopeC2Ev
	.cfi_startproc
# BB#0:
	pushq	%rbp
.Ltmp92:
	.cfi_def_cfa_offset 16
.Ltmp93:
	.cfi_offset %rbp, -16
	movq	%rsp, %rbp
.Ltmp94:
	.cfi_def_cfa_register %rbp
	subq	$16, %rsp
	movq	%rdi, -8(%rbp)
	movq	-8(%rbp), %rdi
	movq	%rdi, -16(%rbp)         # 8-byte Spill
	callq	_ZN2v87Isolate10GetCurrentEv
	movq	-16(%rbp), %rdi         # 8-byte Reload
	movq	%rax, %rsi
	callq	_ZN2v811HandleScopeC1EPNS_7IsolateE
	addq	$16, %rsp
	popq	%rbp
	retq
.Ltmp95:
	.size	_ZN3Nan11HandleScopeC2Ev, .Ltmp95-_ZN3Nan11HandleScopeC2Ev
	.cfi_endproc

	.section	.text._ZN3Nan11HandleScopeD2Ev,"axG",@progbits,_ZN3Nan11HandleScopeD2Ev,comdat
	.weak	_ZN3Nan11HandleScopeD2Ev
	.align	16, 0x90
	.type	_ZN3Nan11HandleScopeD2Ev,@function
_ZN3Nan11HandleScopeD2Ev:               # @_ZN3Nan11HandleScopeD2Ev
	.cfi_startproc
# BB#0:
	pushq	%rbp
.Ltmp96:
	.cfi_def_cfa_offset 16
.Ltmp97:
	.cfi_offset %rbp, -16
	movq	%rsp, %rbp
.Ltmp98:
	.cfi_def_cfa_register %rbp
	subq	$16, %rsp
	movq	%rdi, -8(%rbp)
	movq	-8(%rbp), %rdi
	callq	_ZN2v811HandleScopeD1Ev
	addq	$16, %rsp
	popq	%rbp
	retq
.Ltmp99:
	.size	_ZN3Nan11HandleScopeD2Ev, .Ltmp99-_ZN3Nan11HandleScopeD2Ev
	.cfi_endproc

	.section	.text._ZNK3Nan20FunctionCallbackInfoIN2v85ValueEE6LengthEv,"axG",@progbits,_ZNK3Nan20FunctionCallbackInfoIN2v85ValueEE6LengthEv,comdat
	.weak	_ZNK3Nan20FunctionCallbackInfoIN2v85ValueEE6LengthEv
	.align	16, 0x90
	.type	_ZNK3Nan20FunctionCallbackInfoIN2v85ValueEE6LengthEv,@function
_ZNK3Nan20FunctionCallbackInfoIN2v85ValueEE6LengthEv: # @_ZNK3Nan20FunctionCallbackInfoIN2v85ValueEE6LengthEv
	.cfi_startproc
# BB#0:
	pushq	%rbp
.Ltmp100:
	.cfi_def_cfa_offset 16
.Ltmp101:
	.cfi_offset %rbp, -16
	movq	%rsp, %rbp
.Ltmp102:
	.cfi_def_cfa_register %rbp
	movq	%rdi, -16(%rbp)
	movq	-16(%rbp), %rdi
	movq	(%rdi), %rdi
	movq	%rdi, -8(%rbp)
	movq	-8(%rbp), %rdi
	movl	16(%rdi), %eax
	popq	%rbp
	retq
.Ltmp103:
	.size	_ZNK3Nan20FunctionCallbackInfoIN2v85ValueEE6LengthEv, .Ltmp103-_ZNK3Nan20FunctionCallbackInfoIN2v85ValueEE6LengthEv
	.cfi_endproc

	.section	.text._ZNK3Nan20FunctionCallbackInfoIN2v85ValueEEixEi,"axG",@progbits,_ZNK3Nan20FunctionCallbackInfoIN2v85ValueEEixEi,comdat
	.weak	_ZNK3Nan20FunctionCallbackInfoIN2v85ValueEEixEi
	.align	16, 0x90
	.type	_ZNK3Nan20FunctionCallbackInfoIN2v85ValueEEixEi,@function
_ZNK3Nan20FunctionCallbackInfoIN2v85ValueEEixEi: # @_ZNK3Nan20FunctionCallbackInfoIN2v85ValueEEixEi
	.cfi_startproc
# BB#0:
	pushq	%rbp
.Ltmp104:
	.cfi_def_cfa_offset 16
.Ltmp105:
	.cfi_offset %rbp, -16
	movq	%rsp, %rbp
.Ltmp106:
	.cfi_def_cfa_register %rbp
	subq	$88, %rsp
	movq	%rdi, -200(%rbp)
	movl	%esi, -204(%rbp)
	movq	-200(%rbp), %rdi
	movq	(%rdi), %rdi
	movl	-204(%rbp), %esi
	movq	%rdi, -168(%rbp)
	movl	%esi, -172(%rbp)
	movq	-168(%rbp), %rdi
	cmpl	$0, -172(%rbp)
	movq	%rdi, -216(%rbp)        # 8-byte Spill
	jl	.LBB5_2
# BB#1:
	movq	-216(%rbp), %rax        # 8-byte Reload
	movl	16(%rax), %ecx
	cmpl	-172(%rbp), %ecx
	jg	.LBB5_3
.LBB5_2:
	leaq	-160(%rbp), %rax
	leaq	-184(%rbp), %rcx
	leaq	-56(%rbp), %rdx
	movq	-216(%rbp), %rsi        # 8-byte Reload
	movq	%rsi, -152(%rbp)
	movq	-152(%rbp), %rdi
	movq	(%rdi), %rdi
	movq	8(%rdi), %rdi
	movq	%rdi, -64(%rbp)
	movq	-64(%rbp), %rdi
	movq	%rdi, -48(%rbp)
	movq	-64(%rbp), %rdi
	movq	%rdi, -8(%rbp)
	movl	$5, -12(%rbp)
	movq	-8(%rbp), %rdi
	addq	$56, %rdi
	movq	%rdi, -24(%rbp)
	movq	-24(%rbp), %rdi
	movl	-12(%rbp), %r8d
	shll	$3, %r8d
	movslq	%r8d, %r9
	addq	%r9, %rdi
	movq	%rdi, -72(%rbp)
	movq	-72(%rbp), %rdi
	movq	%rdx, -32(%rbp)
	movq	%rdi, -40(%rbp)
	movq	-32(%rbp), %rdx
	movq	-40(%rbp), %rdi
	movq	%rdi, (%rdx)
	movq	-56(%rbp), %rdx
	movq	%rdx, -184(%rbp)
	movq	%rcx, -80(%rbp)
	movq	-80(%rbp), %rcx
	movq	(%rcx), %rcx
	movq	%rax, -104(%rbp)
	movq	%rcx, -112(%rbp)
	movq	-104(%rbp), %rax
	movq	-112(%rbp), %rcx
	movq	%rax, -88(%rbp)
	movq	%rcx, -96(%rbp)
	movq	-88(%rbp), %rax
	movq	-96(%rbp), %rcx
	movq	%rcx, (%rax)
	jmp	.LBB5_4
.LBB5_3:
	leaq	-160(%rbp), %rax
	xorl	%ecx, %ecx
	movl	%ecx, %edx
	movq	-216(%rbp), %rsi        # 8-byte Reload
	movq	8(%rsi), %rdi
	movslq	-172(%rbp), %r8
	subq	%r8, %rdx
	shlq	$3, %rdx
	addq	%rdx, %rdi
	movq	%rax, -136(%rbp)
	movq	%rdi, -144(%rbp)
	movq	-136(%rbp), %rax
	movq	-144(%rbp), %rdx
	movq	%rax, -120(%rbp)
	movq	%rdx, -128(%rbp)
	movq	-120(%rbp), %rax
	movq	-128(%rbp), %rdx
	movq	%rdx, (%rax)
.LBB5_4:                                # %_ZNK2v820FunctionCallbackInfoINS_5ValueEEixEi.exit
	movq	-160(%rbp), %rax
	movq	%rax, -192(%rbp)
	movq	-192(%rbp), %rax
	addq	$88, %rsp
	popq	%rbp
	retq
.Ltmp107:
	.size	_ZNK3Nan20FunctionCallbackInfoIN2v85ValueEEixEi, .Ltmp107-_ZNK3Nan20FunctionCallbackInfoIN2v85ValueEEixEi
	.cfi_endproc

	.section	.text._ZNK2v85Value9ToIntegerEv,"axG",@progbits,_ZNK2v85Value9ToIntegerEv,comdat
	.weak	_ZNK2v85Value9ToIntegerEv
	.align	16, 0x90
	.type	_ZNK2v85Value9ToIntegerEv,@function
_ZNK2v85Value9ToIntegerEv:              # @_ZNK2v85Value9ToIntegerEv
	.cfi_startproc
# BB#0:
	pushq	%rbp
.Ltmp108:
	.cfi_def_cfa_offset 16
.Ltmp109:
	.cfi_offset %rbp, -16
	movq	%rsp, %rbp
.Ltmp110:
	.cfi_def_cfa_register %rbp
	subq	$32, %rsp
	movq	%rdi, -16(%rbp)
	movq	-16(%rbp), %rdi
	movq	%rdi, -24(%rbp)         # 8-byte Spill
	callq	_ZN2v87Isolate10GetCurrentEv
	movq	-24(%rbp), %rdi         # 8-byte Reload
	movq	%rax, %rsi
	callq	_ZNK2v85Value9ToIntegerEPNS_7IsolateE
	movq	%rax, -8(%rbp)
	movq	-8(%rbp), %rax
	addq	$32, %rsp
	popq	%rbp
	retq
.Ltmp111:
	.size	_ZNK2v85Value9ToIntegerEv, .Ltmp111-_ZNK2v85Value9ToIntegerEv
	.cfi_endproc

	.section	.text._ZStplIcSt11char_traitsIcESaIcEESbIT_T0_T1_EOS6_S7_,"axG",@progbits,_ZStplIcSt11char_traitsIcESaIcEESbIT_T0_T1_EOS6_S7_,comdat
	.weak	_ZStplIcSt11char_traitsIcESaIcEESbIT_T0_T1_EOS6_S7_
	.align	16, 0x90
	.type	_ZStplIcSt11char_traitsIcESaIcEESbIT_T0_T1_EOS6_S7_,@function
_ZStplIcSt11char_traitsIcESaIcEESbIT_T0_T1_EOS6_S7_: # @_ZStplIcSt11char_traitsIcESaIcEESbIT_T0_T1_EOS6_S7_
	.cfi_startproc
# BB#0:
	pushq	%rbp
.Ltmp112:
	.cfi_def_cfa_offset 16
.Ltmp113:
	.cfi_offset %rbp, -16
	movq	%rsp, %rbp
.Ltmp114:
	.cfi_def_cfa_register %rbp
	subq	$96, %rsp
	movq	%rdi, %rax
	movq	%rsi, -8(%rbp)
	movq	%rdx, -16(%rbp)
	movq	-8(%rbp), %rdx
	movq	%rdi, -40(%rbp)         # 8-byte Spill
	movq	%rdx, %rdi
	movq	%rax, -48(%rbp)         # 8-byte Spill
	callq	_ZNKSs4sizeEv
	movq	-16(%rbp), %rdi
	movq	%rax, -56(%rbp)         # 8-byte Spill
	callq	_ZNKSs4sizeEv
	movq	-56(%rbp), %rdx         # 8-byte Reload
	addq	%rax, %rdx
	movq	%rdx, -24(%rbp)
	movq	-24(%rbp), %rax
	movq	-8(%rbp), %rdi
	movq	%rax, -64(%rbp)         # 8-byte Spill
	callq	_ZNKSs8capacityEv
	xorl	%ecx, %ecx
	movb	%cl, %r8b
	movq	-64(%rbp), %rdx         # 8-byte Reload
	cmpq	%rax, %rdx
	movb	%r8b, -65(%rbp)         # 1-byte Spill
	jbe	.LBB7_2
# BB#1:
	movq	-24(%rbp), %rax
	movq	-16(%rbp), %rdi
	movq	%rax, -80(%rbp)         # 8-byte Spill
	callq	_ZNKSs8capacityEv
	movq	-80(%rbp), %rdi         # 8-byte Reload
	cmpq	%rax, %rdi
	setbe	%cl
	movb	%cl, -65(%rbp)          # 1-byte Spill
.LBB7_2:
	movb	-65(%rbp), %al          # 1-byte Reload
	andb	$1, %al
	movb	%al, -25(%rbp)
	testb	$1, -25(%rbp)
	je	.LBB7_4
# BB#3:
	xorl	%eax, %eax
	movl	%eax, %esi
	movq	-16(%rbp), %rdi
	movq	-8(%rbp), %rdx
	callq	_ZNSs6insertEmRKSs
	movq	%rax, %rdi
	callq	_ZSt4moveIRSsEONSt16remove_referenceIT_E4typeEOS2_
	movq	%rax, -88(%rbp)         # 8-byte Spill
	jmp	.LBB7_5
.LBB7_4:
	movq	-8(%rbp), %rdi
	movq	-16(%rbp), %rsi
	callq	_ZNSs6appendERKSs
	movq	%rax, %rdi
	callq	_ZSt4moveIRSsEONSt16remove_referenceIT_E4typeEOS2_
	movq	%rax, -88(%rbp)         # 8-byte Spill
.LBB7_5:
	movq	-88(%rbp), %rax         # 8-byte Reload
	movq	-40(%rbp), %rdi         # 8-byte Reload
	movq	%rax, %rsi
	callq	_ZNSsC1EOSs
	movq	-48(%rbp), %rax         # 8-byte Reload
	addq	$96, %rsp
	popq	%rbp
	retq
.Ltmp115:
	.size	_ZStplIcSt11char_traitsIcESaIcEESbIT_T0_T1_EOS6_S7_, .Ltmp115-_ZStplIcSt11char_traitsIcESaIcEESbIT_T0_T1_EOS6_S7_
	.cfi_endproc

	.section	.text._ZSt9to_stringi,"axG",@progbits,_ZSt9to_stringi,comdat
	.weak	_ZSt9to_stringi
	.align	16, 0x90
	.type	_ZSt9to_stringi,@function
_ZSt9to_stringi:                        # @_ZSt9to_stringi
	.cfi_startproc
# BB#0:
	pushq	%rbp
.Ltmp116:
	.cfi_def_cfa_offset 16
.Ltmp117:
	.cfi_offset %rbp, -16
	movq	%rsp, %rbp
.Ltmp118:
	.cfi_def_cfa_register %rbp
	subq	$16, %rsp
	movq	%rdi, %rax
	movabsq	$vsnprintf, %rcx
	movl	$16, %edx
                                        # kill: RDX<def> EDX<kill>
	movabsq	$.L.str34, %r8
	movl	%esi, -4(%rbp)
	movl	-4(%rbp), %esi
	movl	%esi, -8(%rbp)          # 4-byte Spill
	movq	%rcx, %rsi
	movq	%r8, %rcx
	movl	-8(%rbp), %r8d          # 4-byte Reload
	movq	%rax, -16(%rbp)         # 8-byte Spill
	movb	$0, %al
	callq	_ZN9__gnu_cxx12__to_xstringISscEET_PFiPT0_mPKS2_P13__va_list_tagEmS5_z
	movq	-16(%rbp), %rax         # 8-byte Reload
	addq	$16, %rsp
	popq	%rbp
	retq
.Ltmp119:
	.size	_ZSt9to_stringi, .Ltmp119-_ZSt9to_stringi
	.cfi_endproc

	.text
	.align	16, 0x90
	.type	_ZSt5asyncIZ8mmap_mapRKN3Nan20FunctionCallbackInfoIN2v85ValueEEEE3$_0JEESt6futureINSt9result_ofIFT_DpT0_EE4typeEESt6launchOSA_DpOSB_,@function
_ZSt5asyncIZ8mmap_mapRKN3Nan20FunctionCallbackInfoIN2v85ValueEEEE3$_0JEESt6futureINSt9result_ofIFT_DpT0_EE4typeEESt6launchOSA_DpOSB_: # @"_ZSt5asyncIZ8mmap_mapRKN3Nan20FunctionCallbackInfoIN2v85ValueEEEE3$_0JEESt6futureINSt9result_ofIFT_DpT0_EE4typeEESt6launchOSA_DpOSB_"
	.cfi_startproc
	.cfi_personality 3, __gxx_personality_v0
.Leh_func_begin9:
	.cfi_lsda 3, .Lexception9
# BB#0:
	pushq	%rbp
.Ltmp135:
	.cfi_def_cfa_offset 16
.Ltmp136:
	.cfi_offset %rbp, -16
	movq	%rsp, %rbp
.Ltmp137:
	.cfi_def_cfa_register %rbp
	subq	$208, %rsp
	movq	%rdi, %rax
	movl	%esi, -4(%rbp)
	movq	%rdx, -16(%rbp)
	leaq	-32(%rbp), %rdx
	movq	%rdi, -160(%rbp)        # 8-byte Spill
	movq	%rdx, %rdi
	movq	%rax, -168(%rbp)        # 8-byte Spill
	callq	_ZNSt10shared_ptrINSt13__future_base13_State_baseV2EEC2Ev
	movl	-4(%rbp), %edi
.Ltmp120:
	movl	$1, %esi
	movl	$2, %ecx
	movl	%edi, -172(%rbp)        # 4-byte Spill
	movl	%esi, %edi
	movl	%ecx, %esi
	callq	_ZStorSt6launchS_
.Ltmp121:
	movl	%eax, -176(%rbp)        # 4-byte Spill
	jmp	.LBB9_1
.LBB9_1:
.Ltmp122:
	movl	-172(%rbp), %edi        # 4-byte Reload
	movl	-176(%rbp), %esi        # 4-byte Reload
	callq	_ZStanSt6launchS_
.Ltmp123:
	movl	%eax, -180(%rbp)        # 4-byte Spill
	jmp	.LBB9_2
.LBB9_2:
	movl	-180(%rbp), %eax        # 4-byte Reload
	cmpl	$1, %eax
	jne	.LBB9_7
# BB#3:
	movq	-16(%rbp), %rdi
	callq	_ZSt7forwardIZ8mmap_mapRKN3Nan20FunctionCallbackInfoIN2v85ValueEEEE3$_0EOT_RNSt16remove_referenceIS8_E4typeE
.Ltmp128:
	leaq	-96(%rbp), %rdi
	movq	%rax, %rsi
	callq	_ZSt13__bind_simpleIZ8mmap_mapRKN3Nan20FunctionCallbackInfoIN2v85ValueEEEE3$_0JEENSt19_Bind_simple_helperIT_JDpT0_EE6__typeEOS9_DpOSA_
.Ltmp129:
	jmp	.LBB9_4
.LBB9_4:
.Ltmp130:
	leaq	-64(%rbp), %rdi
	leaq	-96(%rbp), %rsi
	callq	_ZNSt13__future_base19_S_make_async_stateISt12_Bind_simpleIFZ8mmap_mapRKN3Nan20FunctionCallbackInfoIN2v85ValueEEEE3$_0vEEEESt10shared_ptrINS_13_State_baseV2EEOT_
.Ltmp131:
	jmp	.LBB9_5
.LBB9_5:
	leaq	-32(%rbp), %rdi
	leaq	-64(%rbp), %rsi
	callq	_ZNSt10shared_ptrINSt13__future_base13_State_baseV2EEaSEOS2_
	leaq	-64(%rbp), %rdi
	movq	%rax, -192(%rbp)        # 8-byte Spill
	callq	_ZNSt10shared_ptrINSt13__future_base13_State_baseV2EED2Ev
	jmp	.LBB9_10
.LBB9_6:
.Ltmp134:
	leaq	-32(%rbp), %rdi
	movl	%edx, %ecx
	movq	%rax, -40(%rbp)
	movl	%ecx, -44(%rbp)
	callq	_ZNSt10shared_ptrINSt13__future_base13_State_baseV2EED2Ev
	jmp	.LBB9_12
.LBB9_7:
	movq	-16(%rbp), %rdi
	callq	_ZSt7forwardIZ8mmap_mapRKN3Nan20FunctionCallbackInfoIN2v85ValueEEEE3$_0EOT_RNSt16remove_referenceIS8_E4typeE
.Ltmp124:
	leaq	-144(%rbp), %rdi
	movq	%rax, %rsi
	callq	_ZSt13__bind_simpleIZ8mmap_mapRKN3Nan20FunctionCallbackInfoIN2v85ValueEEEE3$_0JEENSt19_Bind_simple_helperIT_JDpT0_EE6__typeEOS9_DpOSA_
.Ltmp125:
	jmp	.LBB9_8
.LBB9_8:
.Ltmp126:
	leaq	-112(%rbp), %rdi
	leaq	-144(%rbp), %rsi
	callq	_ZNSt13__future_base22_S_make_deferred_stateISt12_Bind_simpleIFZ8mmap_mapRKN3Nan20FunctionCallbackInfoIN2v85ValueEEEE3$_0vEEEESt10shared_ptrINS_13_State_baseV2EEOT_
.Ltmp127:
	jmp	.LBB9_9
.LBB9_9:
	leaq	-32(%rbp), %rdi
	leaq	-112(%rbp), %rsi
	callq	_ZNSt10shared_ptrINSt13__future_base13_State_baseV2EEaSEOS2_
	leaq	-112(%rbp), %rdi
	movq	%rax, -200(%rbp)        # 8-byte Spill
	callq	_ZNSt10shared_ptrINSt13__future_base13_State_baseV2EED2Ev
.LBB9_10:
.Ltmp132:
	leaq	-32(%rbp), %rsi
	movq	-160(%rbp), %rdi        # 8-byte Reload
	callq	_ZNSt6futureIvEC2ERKSt10shared_ptrINSt13__future_base13_State_baseV2EE
.Ltmp133:
	jmp	.LBB9_11
.LBB9_11:
	leaq	-32(%rbp), %rdi
	movl	$1, -148(%rbp)
	callq	_ZNSt10shared_ptrINSt13__future_base13_State_baseV2EED2Ev
	movq	-168(%rbp), %rax        # 8-byte Reload
	addq	$208, %rsp
	popq	%rbp
	retq
.LBB9_12:
	movq	-40(%rbp), %rdi
	callq	_Unwind_Resume
.Ltmp138:
	.size	_ZSt5asyncIZ8mmap_mapRKN3Nan20FunctionCallbackInfoIN2v85ValueEEEE3$_0JEESt6futureINSt9result_ofIFT_DpT0_EE4typeEESt6launchOSA_DpOSB_, .Ltmp138-_ZSt5asyncIZ8mmap_mapRKN3Nan20FunctionCallbackInfoIN2v85ValueEEEE3$_0JEESt6futureINSt9result_ofIFT_DpT0_EE4typeEESt6launchOSA_DpOSB_
	.cfi_endproc
.Leh_func_end9:
	.section	.gcc_except_table,"a",@progbits
	.align	4
GCC_except_table9:
.Lexception9:
	.byte	255                     # @LPStart Encoding = omit
	.byte	3                       # @TType Encoding = udata4
	.asciz	"\234"                  # @TType base offset
	.byte	3                       # Call site Encoding = udata4
	.byte	26                      # Call site table length
	.long	.Ltmp120-.Leh_func_begin9 # >> Call Site 1 <<
	.long	.Ltmp133-.Ltmp120       #   Call between .Ltmp120 and .Ltmp133
	.long	.Ltmp134-.Leh_func_begin9 #     jumps to .Ltmp134
	.byte	0                       #   On action: cleanup
	.long	.Ltmp133-.Leh_func_begin9 # >> Call Site 2 <<
	.long	.Leh_func_end9-.Ltmp133 #   Call between .Ltmp133 and .Leh_func_end9
	.long	0                       #     has no landing pad
	.byte	0                       #   On action: cleanup
	.align	4

	.section	.text._ZNSt6futureIvED2Ev,"axG",@progbits,_ZNSt6futureIvED2Ev,comdat
	.weak	_ZNSt6futureIvED2Ev
	.align	16, 0x90
	.type	_ZNSt6futureIvED2Ev,@function
_ZNSt6futureIvED2Ev:                    # @_ZNSt6futureIvED2Ev
	.cfi_startproc
# BB#0:
	pushq	%rbp
.Ltmp139:
	.cfi_def_cfa_offset 16
.Ltmp140:
	.cfi_offset %rbp, -16
	movq	%rsp, %rbp
.Ltmp141:
	.cfi_def_cfa_register %rbp
	subq	$16, %rsp
	movq	%rdi, -8(%rbp)
	movq	-8(%rbp), %rdi
	callq	_ZNSt14__basic_futureIvED2Ev
	addq	$16, %rsp
	popq	%rbp
	retq
.Ltmp142:
	.size	_ZNSt6futureIvED2Ev, .Ltmp142-_ZNSt6futureIvED2Ev
	.cfi_endproc

	.section	.text._ZN4MMapC2EPcm,"axG",@progbits,_ZN4MMapC2EPcm,comdat
	.weak	_ZN4MMapC2EPcm
	.align	16, 0x90
	.type	_ZN4MMapC2EPcm,@function
_ZN4MMapC2EPcm:                         # @_ZN4MMapC2EPcm
	.cfi_startproc
# BB#0:
	pushq	%rbp
.Ltmp143:
	.cfi_def_cfa_offset 16
.Ltmp144:
	.cfi_offset %rbp, -16
	movq	%rsp, %rbp
.Ltmp145:
	.cfi_def_cfa_register %rbp
	movq	%rdi, -8(%rbp)
	movq	%rsi, -16(%rbp)
	movq	%rdx, -24(%rbp)
	movq	-8(%rbp), %rdx
	movq	-16(%rbp), %rsi
	movq	%rsi, (%rdx)
	movq	-24(%rbp), %rsi
	movq	%rsi, 8(%rdx)
	popq	%rbp
	retq
.Ltmp146:
	.size	_ZN4MMapC2EPcm, .Ltmp146-_ZN4MMapC2EPcm
	.cfi_endproc

	.section	.text._ZNK3Nan20FunctionCallbackInfoIN2v85ValueEE14GetReturnValueEv,"axG",@progbits,_ZNK3Nan20FunctionCallbackInfoIN2v85ValueEE14GetReturnValueEv,comdat
	.weak	_ZNK3Nan20FunctionCallbackInfoIN2v85ValueEE14GetReturnValueEv
	.align	16, 0x90
	.type	_ZNK3Nan20FunctionCallbackInfoIN2v85ValueEE14GetReturnValueEv,@function
_ZNK3Nan20FunctionCallbackInfoIN2v85ValueEE14GetReturnValueEv: # @_ZNK3Nan20FunctionCallbackInfoIN2v85ValueEE14GetReturnValueEv
	.cfi_startproc
# BB#0:
	pushq	%rbp
.Ltmp147:
	.cfi_def_cfa_offset 16
.Ltmp148:
	.cfi_offset %rbp, -16
	movq	%rsp, %rbp
.Ltmp149:
	.cfi_def_cfa_register %rbp
	subq	$64, %rsp
	leaq	-40(%rbp), %rax
	leaq	-56(%rbp), %rsi
	leaq	-24(%rbp), %rcx
	movq	%rdi, -48(%rbp)
	movq	-48(%rbp), %rdi
	movq	(%rdi), %rdi
	movq	%rdi, -32(%rbp)
	movq	-32(%rbp), %rdi
	movq	(%rdi), %rdi
	addq	$24, %rdi
	movq	%rcx, -8(%rbp)
	movq	%rdi, -16(%rbp)
	movq	-8(%rbp), %rcx
	movq	-16(%rbp), %rdi
	movq	%rdi, (%rcx)
	movq	-24(%rbp), %rcx
	movq	%rcx, -56(%rbp)
	movq	%rax, %rdi
	callq	_ZN3Nan11ReturnValueIN2v85ValueEEC2IS2_EERKNS1_11ReturnValueIT_EE
	movq	-40(%rbp), %rax
	addq	$64, %rsp
	popq	%rbp
	retq
.Ltmp150:
	.size	_ZNK3Nan20FunctionCallbackInfoIN2v85ValueEE14GetReturnValueEv, .Ltmp150-_ZNK3Nan20FunctionCallbackInfoIN2v85ValueEE14GetReturnValueEv
	.cfi_endproc

	.section	.text._ZN3Nan11ReturnValueIN2v85ValueEE3SetINS1_6ObjectEEEvRKNS1_5LocalIT_EE,"axG",@progbits,_ZN3Nan11ReturnValueIN2v85ValueEE3SetINS1_6ObjectEEEvRKNS1_5LocalIT_EE,comdat
	.weak	_ZN3Nan11ReturnValueIN2v85ValueEE3SetINS1_6ObjectEEEvRKNS1_5LocalIT_EE
	.align	16, 0x90
	.type	_ZN3Nan11ReturnValueIN2v85ValueEE3SetINS1_6ObjectEEEvRKNS1_5LocalIT_EE,@function
_ZN3Nan11ReturnValueIN2v85ValueEE3SetINS1_6ObjectEEEvRKNS1_5LocalIT_EE: # @_ZN3Nan11ReturnValueIN2v85ValueEE3SetINS1_6ObjectEEEvRKNS1_5LocalIT_EE
	.cfi_startproc
# BB#0:
	pushq	%rbp
.Ltmp151:
	.cfi_def_cfa_offset 16
.Ltmp152:
	.cfi_offset %rbp, -16
	movq	%rsp, %rbp
.Ltmp153:
	.cfi_def_cfa_register %rbp
	movq	%rdi, -48(%rbp)
	movq	%rsi, -56(%rbp)
	movq	-48(%rbp), %rsi
	movq	%rsi, -72(%rbp)         # 8-byte Spill
.LBB13_1:                               # =>This Inner Loop Header: Depth=1
	xorl	%eax, %eax
	movb	%al, %cl
	testb	$1, %cl
	jne	.LBB13_2
	jmp	.LBB13_3
.LBB13_2:                               #   in Loop: Header=BB13_1 Depth=1
	xorl	%eax, %eax
	movl	%eax, %ecx
	movq	$0, (%rcx)
	jmp	.LBB13_1
.LBB13_3:
	leaq	-32(%rbp), %rax
	movq	-56(%rbp), %rcx
	movq	(%rcx), %rcx
	movq	%rcx, -64(%rbp)
	movq	-64(%rbp), %rcx
	movq	%rcx, -32(%rbp)
	movq	-72(%rbp), %rcx         # 8-byte Reload
	movq	%rcx, -40(%rbp)
	movq	-40(%rbp), %rdx
	movq	%rax, -24(%rbp)
	movq	-24(%rbp), %rax
	cmpq	$0, (%rax)
	sete	%sil
	andb	$1, %sil
	movzbl	%sil, %edi
	movl	%edi, %eax
	cmpq	$0, %rax
	movq	%rdx, -80(%rbp)         # 8-byte Spill
	je	.LBB13_5
# BB#4:
	movq	-80(%rbp), %rax         # 8-byte Reload
	movq	%rax, -8(%rbp)
	movq	-8(%rbp), %rcx
	movq	(%rcx), %rcx
	movq	-8(%rcx), %rcx
	movq	(%rax), %rdx
	movq	%rcx, (%rdx)
	jmp	.LBB13_6
.LBB13_5:
	leaq	-32(%rbp), %rax
	movq	%rax, -16(%rbp)
	movq	-16(%rbp), %rax
	movq	(%rax), %rax
	movq	(%rax), %rax
	movq	-80(%rbp), %rcx         # 8-byte Reload
	movq	(%rcx), %rdx
	movq	%rax, (%rdx)
.LBB13_6:                               # %_ZN2v811ReturnValueINS_5ValueEE3SetINS_6ObjectEEEvNS_6HandleIT_EE.exit
	popq	%rbp
	retq
.Ltmp154:
	.size	_ZN3Nan11ReturnValueIN2v85ValueEE3SetINS1_6ObjectEEEvRKNS1_5LocalIT_EE, .Ltmp154-_ZN3Nan11ReturnValueIN2v85ValueEE3SetINS1_6ObjectEEEvRKNS1_5LocalIT_EE
	.cfi_endproc

	.text
	.globl	_Z11mmap_adviseRKN3Nan20FunctionCallbackInfoIN2v85ValueEEE
	.align	16, 0x90
	.type	_Z11mmap_adviseRKN3Nan20FunctionCallbackInfoIN2v85ValueEEE,@function
_Z11mmap_adviseRKN3Nan20FunctionCallbackInfoIN2v85ValueEEE: # @_Z11mmap_adviseRKN3Nan20FunctionCallbackInfoIN2v85ValueEEE
	.cfi_startproc
	.cfi_personality 3, __gxx_personality_v0
.Leh_func_begin14:
	.cfi_lsda 3, .Lexception14
# BB#0:
	pushq	%rbp
.Ltmp203:
	.cfi_def_cfa_offset 16
.Ltmp204:
	.cfi_offset %rbp, -16
	movq	%rsp, %rbp
.Ltmp205:
	.cfi_def_cfa_register %rbp
	subq	$912, %rsp              # imm = 0x390
	leaq	-536(%rbp), %rax
	movq	%rdi, -512(%rbp)
	movq	%rax, %rdi
	callq	_ZN3Nan11HandleScopeC2Ev
	leaq	-536(%rbp), %rdi
	callq	_ZN3Nan11HandleScopeD2Ev
	movq	-512(%rbp), %rdi
	callq	_ZNK3Nan20FunctionCallbackInfoIN2v85ValueEE6LengthEv
	cmpl	$2, %eax
	je	.LBB14_8
# BB#1:
	movq	-512(%rbp), %rdi
	callq	_ZNK3Nan20FunctionCallbackInfoIN2v85ValueEE6LengthEv
	cmpl	$4, %eax
	je	.LBB14_8
# BB#2:
	movq	$.L.str7, -424(%rbp)
	leaq	-448(%rbp), %rdi
	callq	_ZN3Nan11HandleScopeC2Ev
.Ltmp194:
	callq	_ZN2v87Isolate10GetCurrentEv
.Ltmp195:
	movq	%rax, -752(%rbp)        # 8-byte Spill
	jmp	.LBB14_3
.LBB14_3:
	movq	-424(%rbp), %rdi
.Ltmp196:
	callq	_ZN3Nan3NewEPKc
.Ltmp197:
	movq	%rax, -760(%rbp)        # 8-byte Spill
	jmp	.LBB14_4
.LBB14_4:
	movq	-760(%rbp), %rax        # 8-byte Reload
	movq	%rax, -496(%rbp)
	leaq	-496(%rbp), %rcx
	movq	%rcx, -416(%rbp)
	movq	-496(%rbp), %rcx
	movq	%rcx, -408(%rbp)
	movq	%rcx, -488(%rbp)
	movq	%rcx, -480(%rbp)
.Ltmp198:
	movq	%rcx, %rdi
	callq	_ZN2v89Exception5ErrorENS_6HandleINS_6StringEEE
.Ltmp199:
	movq	%rax, -768(%rbp)        # 8-byte Spill
	jmp	.LBB14_5
.LBB14_5:
	movq	-768(%rbp), %rax        # 8-byte Reload
	movq	%rax, -472(%rbp)
.Ltmp200:
	movq	-752(%rbp), %rdi        # 8-byte Reload
	movq	%rax, %rsi
	callq	_ZN2v87Isolate14ThrowExceptionENS_5LocalINS_5ValueEEE
.Ltmp201:
	movq	%rax, -776(%rbp)        # 8-byte Spill
	jmp	.LBB14_7
.LBB14_6:
.Ltmp202:
	leaq	-448(%rbp), %rdi
	movl	%edx, %ecx
	movq	%rax, -456(%rbp)
	movl	%ecx, -460(%rbp)
	callq	_ZN3Nan11HandleScopeD2Ev
	movq	-456(%rbp), %rax
	movq	%rax, -784(%rbp)        # 8-byte Spill
	jmp	.LBB14_47
.LBB14_7:                               # %_ZN3Nan10ThrowErrorEPKc.exit
	leaq	-448(%rbp), %rdi
	movq	-776(%rbp), %rax        # 8-byte Reload
	movq	%rax, -504(%rbp)
	callq	_ZN3Nan11HandleScopeD2Ev
	jmp	.LBB14_45
.LBB14_8:
	xorl	%esi, %esi
	movq	-512(%rbp), %rdi
	callq	_ZNK3Nan20FunctionCallbackInfoIN2v85ValueEEixEi
	leaq	-544(%rbp), %rdi
	movq	%rax, -544(%rbp)
	movq	%rdi, -400(%rbp)
	movq	-400(%rbp), %rax
	movq	(%rax), %rdi
	callq	_ZNK2v85Value8IsObjectEv
	testb	$1, %al
	jne	.LBB14_15
# BB#9:
	movq	$.L.str8, -312(%rbp)
	leaq	-336(%rbp), %rdi
	callq	_ZN3Nan11HandleScopeC2Ev
.Ltmp155:
	callq	_ZN2v87Isolate10GetCurrentEv
.Ltmp156:
	movq	%rax, -792(%rbp)        # 8-byte Spill
	jmp	.LBB14_10
.LBB14_10:
	movq	-312(%rbp), %rdi
.Ltmp157:
	callq	_ZN3Nan3NewEPKc
.Ltmp158:
	movq	%rax, -800(%rbp)        # 8-byte Spill
	jmp	.LBB14_11
.LBB14_11:
	movq	-800(%rbp), %rax        # 8-byte Reload
	movq	%rax, -384(%rbp)
	leaq	-384(%rbp), %rcx
	movq	%rcx, -304(%rbp)
	movq	-384(%rbp), %rcx
	movq	%rcx, -296(%rbp)
	movq	%rcx, -376(%rbp)
	movq	%rcx, -368(%rbp)
.Ltmp159:
	movq	%rcx, %rdi
	callq	_ZN2v89Exception5ErrorENS_6HandleINS_6StringEEE
.Ltmp160:
	movq	%rax, -808(%rbp)        # 8-byte Spill
	jmp	.LBB14_12
.LBB14_12:
	movq	-808(%rbp), %rax        # 8-byte Reload
	movq	%rax, -360(%rbp)
.Ltmp161:
	movq	-792(%rbp), %rdi        # 8-byte Reload
	movq	%rax, %rsi
	callq	_ZN2v87Isolate14ThrowExceptionENS_5LocalINS_5ValueEEE
.Ltmp162:
	movq	%rax, -816(%rbp)        # 8-byte Spill
	jmp	.LBB14_14
.LBB14_13:
.Ltmp163:
	leaq	-336(%rbp), %rdi
	movl	%edx, %ecx
	movq	%rax, -344(%rbp)
	movl	%ecx, -348(%rbp)
	callq	_ZN3Nan11HandleScopeD2Ev
	movq	-344(%rbp), %rax
	movq	%rax, -784(%rbp)        # 8-byte Spill
	jmp	.LBB14_47
.LBB14_14:                              # %_ZN3Nan10ThrowErrorEPKc.exit3
	leaq	-336(%rbp), %rdi
	movq	-816(%rbp), %rax        # 8-byte Reload
	movq	%rax, -392(%rbp)
	callq	_ZN3Nan11HandleScopeD2Ev
	jmp	.LBB14_45
.LBB14_15:
	movl	$1, %esi
	movq	-512(%rbp), %rdi
	callq	_ZNK3Nan20FunctionCallbackInfoIN2v85ValueEEixEi
	leaq	-552(%rbp), %rdi
	movq	%rax, -552(%rbp)
	movq	%rdi, -288(%rbp)
	movq	-288(%rbp), %rax
	movq	(%rax), %rdi
	callq	_ZNK2v85Value8IsNumberEv
	testb	$1, %al
	jne	.LBB14_22
# BB#16:
	movq	$.L.str9, -200(%rbp)
	leaq	-224(%rbp), %rdi
	callq	_ZN3Nan11HandleScopeC2Ev
.Ltmp164:
	callq	_ZN2v87Isolate10GetCurrentEv
.Ltmp165:
	movq	%rax, -824(%rbp)        # 8-byte Spill
	jmp	.LBB14_17
.LBB14_17:
	movq	-200(%rbp), %rdi
.Ltmp166:
	callq	_ZN3Nan3NewEPKc
.Ltmp167:
	movq	%rax, -832(%rbp)        # 8-byte Spill
	jmp	.LBB14_18
.LBB14_18:
	movq	-832(%rbp), %rax        # 8-byte Reload
	movq	%rax, -272(%rbp)
	leaq	-272(%rbp), %rcx
	movq	%rcx, -192(%rbp)
	movq	-272(%rbp), %rcx
	movq	%rcx, -184(%rbp)
	movq	%rcx, -264(%rbp)
	movq	%rcx, -256(%rbp)
.Ltmp168:
	movq	%rcx, %rdi
	callq	_ZN2v89Exception5ErrorENS_6HandleINS_6StringEEE
.Ltmp169:
	movq	%rax, -840(%rbp)        # 8-byte Spill
	jmp	.LBB14_19
.LBB14_19:
	movq	-840(%rbp), %rax        # 8-byte Reload
	movq	%rax, -248(%rbp)
.Ltmp170:
	movq	-824(%rbp), %rdi        # 8-byte Reload
	movq	%rax, %rsi
	callq	_ZN2v87Isolate14ThrowExceptionENS_5LocalINS_5ValueEEE
.Ltmp171:
	movq	%rax, -848(%rbp)        # 8-byte Spill
	jmp	.LBB14_21
.LBB14_20:
.Ltmp172:
	leaq	-224(%rbp), %rdi
	movl	%edx, %ecx
	movq	%rax, -232(%rbp)
	movl	%ecx, -236(%rbp)
	callq	_ZN3Nan11HandleScopeD2Ev
	movq	-232(%rbp), %rax
	movq	%rax, -784(%rbp)        # 8-byte Spill
	jmp	.LBB14_47
.LBB14_21:                              # %_ZN3Nan10ThrowErrorEPKc.exit5
	leaq	-224(%rbp), %rdi
	movq	-848(%rbp), %rax        # 8-byte Reload
	movq	%rax, -280(%rbp)
	callq	_ZN3Nan11HandleScopeD2Ev
	jmp	.LBB14_45
.LBB14_22:
	xorl	%esi, %esi
	movq	-512(%rbp), %rdi
	callq	_ZNK3Nan20FunctionCallbackInfoIN2v85ValueEEixEi
	leaq	-568(%rbp), %rdi
	movq	%rax, -568(%rbp)
	movq	%rdi, -176(%rbp)
	movq	-176(%rbp), %rax
	movq	(%rax), %rdi
	callq	_ZNK2v85Value8ToObjectEv
	movq	%rax, -560(%rbp)
	movq	-560(%rbp), %rax
	movq	%rax, -584(%rbp)
	movq	-584(%rbp), %rdi
	callq	_ZN4node6Buffer4DataEN2v86HandleINS1_6ObjectEEE
	movq	%rax, -576(%rbp)
	movq	-560(%rbp), %rax
	movq	%rax, -600(%rbp)
	movq	-600(%rbp), %rdi
	callq	_ZN4node6Buffer6LengthEN2v86HandleINS1_6ObjectEEE
	movq	%rax, -592(%rbp)
	movq	-512(%rbp), %rdi
	callq	_ZNK3Nan20FunctionCallbackInfoIN2v85ValueEE6LengthEv
	cmpl	$2, %eax
	jne	.LBB14_24
# BB#23:
	movl	$1, %esi
	movq	-512(%rbp), %rdi
	callq	_ZNK3Nan20FunctionCallbackInfoIN2v85ValueEEixEi
	leaq	-616(%rbp), %rdi
	movq	%rax, -616(%rbp)
	movq	%rdi, -168(%rbp)
	movq	-168(%rbp), %rax
	movq	(%rax), %rdi
	callq	_ZNK2v85Value9ToIntegerEv
	leaq	-624(%rbp), %rdi
	movq	%rax, -624(%rbp)
	movq	%rdi, -160(%rbp)
	movq	-160(%rbp), %rax
	movq	(%rax), %rdi
	callq	_ZNK2v87Integer5ValueEv
	movl	%eax, %esi
	movl	%esi, -608(%rbp)
	movq	-576(%rbp), %rdi
	movq	-592(%rbp), %rsi
	movl	-608(%rbp), %edx
	callq	_Z14do_mmap_advicePcmi
	movl	%eax, -604(%rbp)
	jmp	.LBB14_25
.LBB14_24:
	movl	$1, %esi
	movq	-512(%rbp), %rdi
	callq	_ZNK3Nan20FunctionCallbackInfoIN2v85ValueEEixEi
	leaq	-640(%rbp), %rdi
	movq	%rax, -640(%rbp)
	movq	%rdi, -152(%rbp)
	movq	-152(%rbp), %rax
	movq	(%rax), %rdi
	callq	_ZNK2v85Value9ToIntegerEv
	leaq	-648(%rbp), %rdi
	movq	%rax, -648(%rbp)
	movq	%rdi, -144(%rbp)
	movq	-144(%rbp), %rax
	movq	(%rax), %rdi
	callq	_ZNK2v87Integer5ValueEv
	movl	$2, %esi
	movl	%eax, %ecx
	movl	%ecx, -628(%rbp)
	movq	-512(%rbp), %rdi
	callq	_ZNK3Nan20FunctionCallbackInfoIN2v85ValueEEixEi
	leaq	-664(%rbp), %rdi
	movq	%rax, -664(%rbp)
	movq	%rdi, -136(%rbp)
	movq	-136(%rbp), %rax
	movq	(%rax), %rdi
	callq	_ZNK2v85Value9ToIntegerEv
	leaq	-672(%rbp), %rdi
	movq	%rax, -672(%rbp)
	movq	%rdi, -128(%rbp)
	movq	-128(%rbp), %rax
	movq	(%rax), %rdi
	callq	_ZNK2v87Integer5ValueEv
	movl	$3, %esi
	movl	%eax, %ecx
	movl	%ecx, -652(%rbp)
	movq	-512(%rbp), %rdi
	callq	_ZNK3Nan20FunctionCallbackInfoIN2v85ValueEEixEi
	leaq	-688(%rbp), %rdi
	movq	%rax, -688(%rbp)
	movq	%rdi, -120(%rbp)
	movq	-120(%rbp), %rax
	movq	(%rax), %rdi
	callq	_ZNK2v85Value9ToIntegerEv
	leaq	-696(%rbp), %rdi
	movq	%rax, -696(%rbp)
	movq	%rdi, -112(%rbp)
	movq	-112(%rbp), %rax
	movq	(%rax), %rdi
	callq	_ZNK2v87Integer5ValueEv
	movl	%eax, %ecx
	movl	%ecx, -676(%rbp)
	movq	-576(%rbp), %rax
	movslq	-628(%rbp), %rdi
	addq	%rdi, %rax
	movslq	-652(%rbp), %rsi
	movl	-676(%rbp), %edx
	movq	%rax, %rdi
	callq	_Z14do_mmap_advicePcmi
	movl	%eax, -604(%rbp)
.LBB14_25:
	cmpl	$0, -604(%rbp)
	je	.LBB14_45
# BB#26:
	leaq	-720(%rbp), %rax
	movq	%rax, %rdi
	movq	%rax, -856(%rbp)        # 8-byte Spill
	callq	_ZNSaIcEC1Ev
.Ltmp173:
	movl	$.L.str10, %ecx
	movl	%ecx, %esi
	leaq	-712(%rbp), %rdi
	movq	-856(%rbp), %rdx        # 8-byte Reload
	callq	_ZNSsC1EPKcRKSaIcE
.Ltmp174:
	jmp	.LBB14_27
.LBB14_27:
	callq	__errno_location
	movl	(%rax), %esi
.Ltmp176:
	leaq	-744(%rbp), %rdi
	callq	_ZSt9to_stringi
.Ltmp177:
	jmp	.LBB14_28
.LBB14_28:
.Ltmp179:
	leaq	-704(%rbp), %rdi
	leaq	-712(%rbp), %rsi
	leaq	-744(%rbp), %rdx
	callq	_ZStplIcSt11char_traitsIcESaIcEESbIT_T0_T1_EOS6_S7_
.Ltmp180:
	jmp	.LBB14_29
.LBB14_29:
	leaq	-704(%rbp), %rdi
	callq	_ZNKSs5c_strEv
	movq	%rax, -24(%rbp)
.Ltmp182:
	leaq	-48(%rbp), %rdi
	callq	_ZN3Nan11HandleScopeC2Ev
.Ltmp183:
	jmp	.LBB14_30
.LBB14_30:                              # %.noexc
.Ltmp185:
	callq	_ZN2v87Isolate10GetCurrentEv
.Ltmp186:
	movq	%rax, -864(%rbp)        # 8-byte Spill
	jmp	.LBB14_31
.LBB14_31:
	movq	-24(%rbp), %rdi
.Ltmp187:
	callq	_ZN3Nan3NewEPKc
.Ltmp188:
	movq	%rax, -872(%rbp)        # 8-byte Spill
	jmp	.LBB14_32
.LBB14_32:
	movq	-872(%rbp), %rax        # 8-byte Reload
	movq	%rax, -96(%rbp)
	leaq	-96(%rbp), %rcx
	movq	%rcx, -16(%rbp)
	movq	-96(%rbp), %rcx
	movq	%rcx, -8(%rbp)
	movq	%rcx, -88(%rbp)
	movq	%rcx, -80(%rbp)
.Ltmp189:
	movq	%rcx, %rdi
	callq	_ZN2v89Exception5ErrorENS_6HandleINS_6StringEEE
.Ltmp190:
	movq	%rax, -880(%rbp)        # 8-byte Spill
	jmp	.LBB14_33
.LBB14_33:
	movq	-880(%rbp), %rax        # 8-byte Reload
	movq	%rax, -72(%rbp)
.Ltmp191:
	movq	-864(%rbp), %rdi        # 8-byte Reload
	movq	%rax, %rsi
	callq	_ZN2v87Isolate14ThrowExceptionENS_5LocalINS_5ValueEEE
.Ltmp192:
	movq	%rax, -888(%rbp)        # 8-byte Spill
	jmp	.LBB14_35
.LBB14_34:
.Ltmp193:
	movl	%edx, %ecx
	movq	%rax, -56(%rbp)
	movl	%ecx, -60(%rbp)
	leaq	-48(%rbp), %rdi
	callq	_ZN3Nan11HandleScopeD2Ev
	movq	-56(%rbp), %rax
	movl	-60(%rbp), %ecx
	movq	%rax, -896(%rbp)        # 8-byte Spill
	movl	%ecx, -900(%rbp)        # 4-byte Spill
	jmp	.LBB14_41
.LBB14_35:                              # %_ZN3Nan10ThrowErrorEPKc.exit7
	leaq	-48(%rbp), %rdi
	movq	-888(%rbp), %rax        # 8-byte Reload
	movq	%rax, -104(%rbp)
	callq	_ZN3Nan11HandleScopeD2Ev
# BB#36:
	leaq	-704(%rbp), %rdi
	callq	_ZNSsD1Ev
	leaq	-744(%rbp), %rdi
	callq	_ZNSsD1Ev
	leaq	-712(%rbp), %rdi
	callq	_ZNSsD1Ev
	leaq	-720(%rbp), %rdi
	callq	_ZNSaIcED1Ev
	jmp	.LBB14_45
.LBB14_37:
.Ltmp175:
	movl	%edx, %ecx
	movq	%rax, -728(%rbp)
	movl	%ecx, -732(%rbp)
	jmp	.LBB14_44
.LBB14_38:
.Ltmp178:
	movl	%edx, %ecx
	movq	%rax, -728(%rbp)
	movl	%ecx, -732(%rbp)
	jmp	.LBB14_43
.LBB14_39:
.Ltmp181:
	movl	%edx, %ecx
	movq	%rax, -728(%rbp)
	movl	%ecx, -732(%rbp)
	jmp	.LBB14_42
.LBB14_40:
.Ltmp184:
	movl	%edx, %ecx
	movq	%rax, -896(%rbp)        # 8-byte Spill
	movl	%ecx, -900(%rbp)        # 4-byte Spill
	jmp	.LBB14_41
.LBB14_41:                              # %.body
	movl	-900(%rbp), %eax        # 4-byte Reload
	movq	-896(%rbp), %rcx        # 8-byte Reload
	leaq	-704(%rbp), %rdi
	movq	%rcx, -728(%rbp)
	movl	%eax, -732(%rbp)
	callq	_ZNSsD1Ev
.LBB14_42:
	leaq	-744(%rbp), %rdi
	callq	_ZNSsD1Ev
.LBB14_43:
	leaq	-712(%rbp), %rdi
	callq	_ZNSsD1Ev
.LBB14_44:
	leaq	-720(%rbp), %rdi
	callq	_ZNSaIcED1Ev
	jmp	.LBB14_46
.LBB14_45:
	addq	$912, %rsp              # imm = 0x390
	popq	%rbp
	retq
.LBB14_46:
	movq	-728(%rbp), %rax
	movq	%rax, -784(%rbp)        # 8-byte Spill
.LBB14_47:                              # %unwind_resume
	movq	-784(%rbp), %rax        # 8-byte Reload
	movq	%rax, %rdi
	callq	_Unwind_Resume
.Ltmp206:
	.size	_Z11mmap_adviseRKN3Nan20FunctionCallbackInfoIN2v85ValueEEE, .Ltmp206-_Z11mmap_adviseRKN3Nan20FunctionCallbackInfoIN2v85ValueEEE
	.cfi_endproc
.Leh_func_end14:
	.section	.gcc_except_table,"a",@progbits
	.align	4
GCC_except_table14:
.Lexception14:
	.byte	255                     # @LPStart Encoding = omit
	.byte	3                       # @TType Encoding = udata4
	.ascii	"\254\001"              # @TType base offset
	.byte	3                       # Call site Encoding = udata4
	.ascii	"\251\001"              # Call site table length
	.long	.Leh_func_begin14-.Leh_func_begin14 # >> Call Site 1 <<
	.long	.Ltmp194-.Leh_func_begin14 #   Call between .Leh_func_begin14 and .Ltmp194
	.long	0                       #     has no landing pad
	.byte	0                       #   On action: cleanup
	.long	.Ltmp194-.Leh_func_begin14 # >> Call Site 2 <<
	.long	.Ltmp201-.Ltmp194       #   Call between .Ltmp194 and .Ltmp201
	.long	.Ltmp202-.Leh_func_begin14 #     jumps to .Ltmp202
	.byte	0                       #   On action: cleanup
	.long	.Ltmp201-.Leh_func_begin14 # >> Call Site 3 <<
	.long	.Ltmp155-.Ltmp201       #   Call between .Ltmp201 and .Ltmp155
	.long	0                       #     has no landing pad
	.byte	0                       #   On action: cleanup
	.long	.Ltmp155-.Leh_func_begin14 # >> Call Site 4 <<
	.long	.Ltmp162-.Ltmp155       #   Call between .Ltmp155 and .Ltmp162
	.long	.Ltmp163-.Leh_func_begin14 #     jumps to .Ltmp163
	.byte	0                       #   On action: cleanup
	.long	.Ltmp162-.Leh_func_begin14 # >> Call Site 5 <<
	.long	.Ltmp164-.Ltmp162       #   Call between .Ltmp162 and .Ltmp164
	.long	0                       #     has no landing pad
	.byte	0                       #   On action: cleanup
	.long	.Ltmp164-.Leh_func_begin14 # >> Call Site 6 <<
	.long	.Ltmp171-.Ltmp164       #   Call between .Ltmp164 and .Ltmp171
	.long	.Ltmp172-.Leh_func_begin14 #     jumps to .Ltmp172
	.byte	0                       #   On action: cleanup
	.long	.Ltmp171-.Leh_func_begin14 # >> Call Site 7 <<
	.long	.Ltmp173-.Ltmp171       #   Call between .Ltmp171 and .Ltmp173
	.long	0                       #     has no landing pad
	.byte	0                       #   On action: cleanup
	.long	.Ltmp173-.Leh_func_begin14 # >> Call Site 8 <<
	.long	.Ltmp174-.Ltmp173       #   Call between .Ltmp173 and .Ltmp174
	.long	.Ltmp175-.Leh_func_begin14 #     jumps to .Ltmp175
	.byte	0                       #   On action: cleanup
	.long	.Ltmp176-.Leh_func_begin14 # >> Call Site 9 <<
	.long	.Ltmp177-.Ltmp176       #   Call between .Ltmp176 and .Ltmp177
	.long	.Ltmp178-.Leh_func_begin14 #     jumps to .Ltmp178
	.byte	0                       #   On action: cleanup
	.long	.Ltmp179-.Leh_func_begin14 # >> Call Site 10 <<
	.long	.Ltmp180-.Ltmp179       #   Call between .Ltmp179 and .Ltmp180
	.long	.Ltmp181-.Leh_func_begin14 #     jumps to .Ltmp181
	.byte	0                       #   On action: cleanup
	.long	.Ltmp182-.Leh_func_begin14 # >> Call Site 11 <<
	.long	.Ltmp183-.Ltmp182       #   Call between .Ltmp182 and .Ltmp183
	.long	.Ltmp184-.Leh_func_begin14 #     jumps to .Ltmp184
	.byte	0                       #   On action: cleanup
	.long	.Ltmp185-.Leh_func_begin14 # >> Call Site 12 <<
	.long	.Ltmp192-.Ltmp185       #   Call between .Ltmp185 and .Ltmp192
	.long	.Ltmp193-.Leh_func_begin14 #     jumps to .Ltmp193
	.byte	0                       #   On action: cleanup
	.long	.Ltmp192-.Leh_func_begin14 # >> Call Site 13 <<
	.long	.Leh_func_end14-.Ltmp192 #   Call between .Ltmp192 and .Leh_func_end14
	.long	0                       #     has no landing pad
	.byte	0                       #   On action: cleanup
	.align	4

	.section	.text._ZNK2v85Value8ToObjectEv,"axG",@progbits,_ZNK2v85Value8ToObjectEv,comdat
	.weak	_ZNK2v85Value8ToObjectEv
	.align	16, 0x90
	.type	_ZNK2v85Value8ToObjectEv,@function
_ZNK2v85Value8ToObjectEv:               # @_ZNK2v85Value8ToObjectEv
	.cfi_startproc
# BB#0:
	pushq	%rbp
.Ltmp207:
	.cfi_def_cfa_offset 16
.Ltmp208:
	.cfi_offset %rbp, -16
	movq	%rsp, %rbp
.Ltmp209:
	.cfi_def_cfa_register %rbp
	subq	$32, %rsp
	movq	%rdi, -16(%rbp)
	movq	-16(%rbp), %rdi
	movq	%rdi, -24(%rbp)         # 8-byte Spill
	callq	_ZN2v87Isolate10GetCurrentEv
	movq	-24(%rbp), %rdi         # 8-byte Reload
	movq	%rax, %rsi
	callq	_ZNK2v85Value8ToObjectEPNS_7IsolateE
	movq	%rax, -8(%rbp)
	movq	-8(%rbp), %rax
	addq	$32, %rsp
	popq	%rbp
	retq
.Ltmp210:
	.size	_ZNK2v85Value8ToObjectEv, .Ltmp210-_ZNK2v85Value8ToObjectEv
	.cfi_endproc

	.section	.text._Z14do_mmap_advicePcmi,"axG",@progbits,_Z14do_mmap_advicePcmi,comdat
	.weak	_Z14do_mmap_advicePcmi
	.align	16, 0x90
	.type	_Z14do_mmap_advicePcmi,@function
_Z14do_mmap_advicePcmi:                 # @_Z14do_mmap_advicePcmi
	.cfi_startproc
# BB#0:
	pushq	%rbp
.Ltmp211:
	.cfi_def_cfa_offset 16
.Ltmp212:
	.cfi_offset %rbp, -16
	movq	%rsp, %rbp
.Ltmp213:
	.cfi_def_cfa_register %rbp
	subq	$32, %rsp
	movq	%rdi, -8(%rbp)
	movq	%rsi, -16(%rbp)
	movl	%edx, -20(%rbp)
	movq	-8(%rbp), %rdi
	movq	-16(%rbp), %rsi
	movl	-20(%rbp), %edx
	callq	madvise
	addq	$32, %rsp
	popq	%rbp
	retq
.Ltmp214:
	.size	_Z14do_mmap_advicePcmi, .Ltmp214-_Z14do_mmap_advicePcmi
	.cfi_endproc

	.text
	.globl	_Z22mmap_sync_lib_private_RKN3Nan20FunctionCallbackInfoIN2v85ValueEEE
	.align	16, 0x90
	.type	_Z22mmap_sync_lib_private_RKN3Nan20FunctionCallbackInfoIN2v85ValueEEE,@function
_Z22mmap_sync_lib_private_RKN3Nan20FunctionCallbackInfoIN2v85ValueEEE: # @_Z22mmap_sync_lib_private_RKN3Nan20FunctionCallbackInfoIN2v85ValueEEE
	.cfi_startproc
	.cfi_personality 3, __gxx_personality_v0
.Leh_func_begin17:
	.cfi_lsda 3, .Lexception17
# BB#0:
	pushq	%rbp
.Ltmp254:
	.cfi_def_cfa_offset 16
.Ltmp255:
	.cfi_offset %rbp, -16
	movq	%rsp, %rbp
.Ltmp256:
	.cfi_def_cfa_register %rbp
	subq	$752, %rsp              # imm = 0x2F0
	leaq	-424(%rbp), %rax
	movq	%rdi, -400(%rbp)
	movq	%rax, %rdi
	callq	_ZN3Nan11HandleScopeC2Ev
	leaq	-424(%rbp), %rdi
	callq	_ZN3Nan11HandleScopeD2Ev
	movq	-400(%rbp), %rdi
	callq	_ZNK3Nan20FunctionCallbackInfoIN2v85ValueEE6LengthEv
	cmpl	$5, %eax
	je	.LBB17_7
# BB#1:
	movq	$.L.str11, -312(%rbp)
	leaq	-336(%rbp), %rdi
	callq	_ZN3Nan11HandleScopeC2Ev
.Ltmp245:
	callq	_ZN2v87Isolate10GetCurrentEv
.Ltmp246:
	movq	%rax, -624(%rbp)        # 8-byte Spill
	jmp	.LBB17_2
.LBB17_2:
	movq	-312(%rbp), %rdi
.Ltmp247:
	callq	_ZN3Nan3NewEPKc
.Ltmp248:
	movq	%rax, -632(%rbp)        # 8-byte Spill
	jmp	.LBB17_3
.LBB17_3:
	movq	-632(%rbp), %rax        # 8-byte Reload
	movq	%rax, -384(%rbp)
	leaq	-384(%rbp), %rcx
	movq	%rcx, -304(%rbp)
	movq	-384(%rbp), %rcx
	movq	%rcx, -296(%rbp)
	movq	%rcx, -376(%rbp)
	movq	%rcx, -368(%rbp)
.Ltmp249:
	movq	%rcx, %rdi
	callq	_ZN2v89Exception5ErrorENS_6HandleINS_6StringEEE
.Ltmp250:
	movq	%rax, -640(%rbp)        # 8-byte Spill
	jmp	.LBB17_4
.LBB17_4:
	movq	-640(%rbp), %rax        # 8-byte Reload
	movq	%rax, -360(%rbp)
.Ltmp251:
	movq	-624(%rbp), %rdi        # 8-byte Reload
	movq	%rax, %rsi
	callq	_ZN2v87Isolate14ThrowExceptionENS_5LocalINS_5ValueEEE
.Ltmp252:
	movq	%rax, -648(%rbp)        # 8-byte Spill
	jmp	.LBB17_6
.LBB17_5:
.Ltmp253:
	leaq	-336(%rbp), %rdi
	movl	%edx, %ecx
	movq	%rax, -344(%rbp)
	movl	%ecx, -348(%rbp)
	callq	_ZN3Nan11HandleScopeD2Ev
	movq	-344(%rbp), %rax
	movq	%rax, -656(%rbp)        # 8-byte Spill
	jmp	.LBB17_36
.LBB17_6:                               # %_ZN3Nan10ThrowErrorEPKc.exit
	leaq	-336(%rbp), %rdi
	movq	-648(%rbp), %rax        # 8-byte Reload
	movq	%rax, -392(%rbp)
	callq	_ZN3Nan11HandleScopeD2Ev
	jmp	.LBB17_34
.LBB17_7:
	xorl	%esi, %esi
	movq	-400(%rbp), %rdi
	callq	_ZNK3Nan20FunctionCallbackInfoIN2v85ValueEEixEi
	leaq	-432(%rbp), %rdi
	movq	%rax, -432(%rbp)
	movq	%rdi, -288(%rbp)
	movq	-288(%rbp), %rax
	movq	(%rax), %rdi
	callq	_ZNK2v85Value8IsObjectEv
	testb	$1, %al
	jne	.LBB17_14
# BB#8:
	movq	$.L.str12, -200(%rbp)
	leaq	-224(%rbp), %rdi
	callq	_ZN3Nan11HandleScopeC2Ev
.Ltmp215:
	callq	_ZN2v87Isolate10GetCurrentEv
.Ltmp216:
	movq	%rax, -664(%rbp)        # 8-byte Spill
	jmp	.LBB17_9
.LBB17_9:
	movq	-200(%rbp), %rdi
.Ltmp217:
	callq	_ZN3Nan3NewEPKc
.Ltmp218:
	movq	%rax, -672(%rbp)        # 8-byte Spill
	jmp	.LBB17_10
.LBB17_10:
	movq	-672(%rbp), %rax        # 8-byte Reload
	movq	%rax, -272(%rbp)
	leaq	-272(%rbp), %rcx
	movq	%rcx, -192(%rbp)
	movq	-272(%rbp), %rcx
	movq	%rcx, -184(%rbp)
	movq	%rcx, -264(%rbp)
	movq	%rcx, -256(%rbp)
.Ltmp219:
	movq	%rcx, %rdi
	callq	_ZN2v89Exception5ErrorENS_6HandleINS_6StringEEE
.Ltmp220:
	movq	%rax, -680(%rbp)        # 8-byte Spill
	jmp	.LBB17_11
.LBB17_11:
	movq	-680(%rbp), %rax        # 8-byte Reload
	movq	%rax, -248(%rbp)
.Ltmp221:
	movq	-664(%rbp), %rdi        # 8-byte Reload
	movq	%rax, %rsi
	callq	_ZN2v87Isolate14ThrowExceptionENS_5LocalINS_5ValueEEE
.Ltmp222:
	movq	%rax, -688(%rbp)        # 8-byte Spill
	jmp	.LBB17_13
.LBB17_12:
.Ltmp223:
	leaq	-224(%rbp), %rdi
	movl	%edx, %ecx
	movq	%rax, -232(%rbp)
	movl	%ecx, -236(%rbp)
	callq	_ZN3Nan11HandleScopeD2Ev
	movq	-232(%rbp), %rax
	movq	%rax, -656(%rbp)        # 8-byte Spill
	jmp	.LBB17_36
.LBB17_13:                              # %_ZN3Nan10ThrowErrorEPKc.exit2
	leaq	-224(%rbp), %rdi
	movq	-688(%rbp), %rax        # 8-byte Reload
	movq	%rax, -280(%rbp)
	callq	_ZN3Nan11HandleScopeD2Ev
	jmp	.LBB17_34
.LBB17_14:
	xorl	%esi, %esi
	movq	-400(%rbp), %rdi
	callq	_ZNK3Nan20FunctionCallbackInfoIN2v85ValueEEixEi
	leaq	-448(%rbp), %rdi
	movq	%rax, -448(%rbp)
	movq	%rdi, -176(%rbp)
	movq	-176(%rbp), %rax
	movq	(%rax), %rdi
	callq	_ZNK2v85Value8ToObjectEv
	movq	%rax, -440(%rbp)
	movq	-440(%rbp), %rax
	movq	%rax, -464(%rbp)
	movq	-464(%rbp), %rdi
	callq	_ZN4node6Buffer4DataEN2v86HandleINS1_6ObjectEEE
	movl	$1, %esi
	movq	%rax, -456(%rbp)
	movq	-400(%rbp), %rdi
	callq	_ZNK3Nan20FunctionCallbackInfoIN2v85ValueEEixEi
	leaq	-480(%rbp), %rdi
	movq	%rax, -480(%rbp)
	movq	%rdi, -168(%rbp)
	movq	-168(%rbp), %rax
	movq	(%rax), %rdi
	callq	_ZNK2v85Value9ToIntegerEv
	leaq	-488(%rbp), %rdi
	movq	%rax, -488(%rbp)
	movq	%rdi, -160(%rbp)
	movq	-160(%rbp), %rax
	movq	(%rax), %rdi
	callq	_ZNK2v87Integer5ValueEv
	movl	$2, %esi
	movl	%eax, %ecx
	movl	%ecx, -468(%rbp)
	movq	-400(%rbp), %rdi
	callq	_ZNK3Nan20FunctionCallbackInfoIN2v85ValueEEixEi
	leaq	-504(%rbp), %rdi
	movq	%rax, -504(%rbp)
	movq	%rdi, -152(%rbp)
	movq	-152(%rbp), %rax
	movq	(%rax), %rdi
	callq	_ZNK2v85Value9ToIntegerEv
	leaq	-512(%rbp), %rdi
	movq	%rax, -512(%rbp)
	movq	%rdi, -144(%rbp)
	movq	-144(%rbp), %rax
	movq	(%rax), %rdi
	callq	_ZNK2v87Integer5ValueEv
	movl	$3, %esi
	movq	%rax, -496(%rbp)
	movq	-400(%rbp), %rdi
	callq	_ZNK3Nan20FunctionCallbackInfoIN2v85ValueEEixEi
	leaq	-528(%rbp), %rdi
	movq	%rax, -528(%rbp)
	movq	%rdi, -136(%rbp)
	movq	-136(%rbp), %rax
	movq	(%rax), %rdi
	callq	_ZNK2v85Value9ToBooleanEv
	leaq	-536(%rbp), %rdi
	movq	%rax, -536(%rbp)
	movq	%rdi, -128(%rbp)
	movq	-128(%rbp), %rax
	movq	(%rax), %rdi
	callq	_ZNK2v87Boolean5ValueEv
	movl	$4, %esi
	andb	$1, %al
	movb	%al, -513(%rbp)
	movq	-400(%rbp), %rdi
	callq	_ZNK3Nan20FunctionCallbackInfoIN2v85ValueEEixEi
	leaq	-552(%rbp), %rdi
	movq	%rax, -552(%rbp)
	movq	%rdi, -120(%rbp)
	movq	-120(%rbp), %rax
	movq	(%rax), %rdi
	callq	_ZNK2v85Value9ToBooleanEv
	leaq	-560(%rbp), %rdi
	movq	%rax, -560(%rbp)
	movq	%rdi, -112(%rbp)
	movq	-112(%rbp), %rax
	movq	(%rax), %rdi
	callq	_ZNK2v87Boolean5ValueEv
	xorl	%ecx, %ecx
	movl	$2, %esi
	movl	$1, %edx
	movl	$4, %r8d
	andb	$1, %al
	movb	%al, -537(%rbp)
	movb	-513(%rbp), %al
	testb	$1, %al
	cmovnel	%r8d, %edx
	movb	-537(%rbp), %al
	testb	$1, %al
	cmovnel	%esi, %ecx
	orl	%ecx, %edx
	movl	%edx, -564(%rbp)
	movq	-456(%rbp), %rdi
	movslq	-468(%rbp), %r9
	addq	%r9, %rdi
	movq	-496(%rbp), %rsi
	movl	-564(%rbp), %edx
	callq	msync
	movl	%eax, -568(%rbp)
	cmpl	$0, -568(%rbp)
	je	.LBB17_34
# BB#15:
	leaq	-592(%rbp), %rax
	movq	%rax, %rdi
	movq	%rax, -696(%rbp)        # 8-byte Spill
	callq	_ZNSaIcEC1Ev
.Ltmp224:
	movl	$.L.str13, %ecx
	movl	%ecx, %esi
	leaq	-584(%rbp), %rdi
	movq	-696(%rbp), %rdx        # 8-byte Reload
	callq	_ZNSsC1EPKcRKSaIcE
.Ltmp225:
	jmp	.LBB17_16
.LBB17_16:
	callq	__errno_location
	movl	(%rax), %esi
.Ltmp227:
	leaq	-616(%rbp), %rdi
	callq	_ZSt9to_stringi
.Ltmp228:
	jmp	.LBB17_17
.LBB17_17:
.Ltmp230:
	leaq	-576(%rbp), %rdi
	leaq	-584(%rbp), %rsi
	leaq	-616(%rbp), %rdx
	callq	_ZStplIcSt11char_traitsIcESaIcEESbIT_T0_T1_EOS6_S7_
.Ltmp231:
	jmp	.LBB17_18
.LBB17_18:
	leaq	-576(%rbp), %rdi
	callq	_ZNKSs5c_strEv
	movq	%rax, -24(%rbp)
.Ltmp233:
	leaq	-48(%rbp), %rdi
	callq	_ZN3Nan11HandleScopeC2Ev
.Ltmp234:
	jmp	.LBB17_19
.LBB17_19:                              # %.noexc
.Ltmp236:
	callq	_ZN2v87Isolate10GetCurrentEv
.Ltmp237:
	movq	%rax, -704(%rbp)        # 8-byte Spill
	jmp	.LBB17_20
.LBB17_20:
	movq	-24(%rbp), %rdi
.Ltmp238:
	callq	_ZN3Nan3NewEPKc
.Ltmp239:
	movq	%rax, -712(%rbp)        # 8-byte Spill
	jmp	.LBB17_21
.LBB17_21:
	movq	-712(%rbp), %rax        # 8-byte Reload
	movq	%rax, -96(%rbp)
	leaq	-96(%rbp), %rcx
	movq	%rcx, -16(%rbp)
	movq	-96(%rbp), %rcx
	movq	%rcx, -8(%rbp)
	movq	%rcx, -88(%rbp)
	movq	%rcx, -80(%rbp)
.Ltmp240:
	movq	%rcx, %rdi
	callq	_ZN2v89Exception5ErrorENS_6HandleINS_6StringEEE
.Ltmp241:
	movq	%rax, -720(%rbp)        # 8-byte Spill
	jmp	.LBB17_22
.LBB17_22:
	movq	-720(%rbp), %rax        # 8-byte Reload
	movq	%rax, -72(%rbp)
.Ltmp242:
	movq	-704(%rbp), %rdi        # 8-byte Reload
	movq	%rax, %rsi
	callq	_ZN2v87Isolate14ThrowExceptionENS_5LocalINS_5ValueEEE
.Ltmp243:
	movq	%rax, -728(%rbp)        # 8-byte Spill
	jmp	.LBB17_24
.LBB17_23:
.Ltmp244:
	movl	%edx, %ecx
	movq	%rax, -56(%rbp)
	movl	%ecx, -60(%rbp)
	leaq	-48(%rbp), %rdi
	callq	_ZN3Nan11HandleScopeD2Ev
	movq	-56(%rbp), %rax
	movl	-60(%rbp), %ecx
	movq	%rax, -736(%rbp)        # 8-byte Spill
	movl	%ecx, -740(%rbp)        # 4-byte Spill
	jmp	.LBB17_30
.LBB17_24:                              # %_ZN3Nan10ThrowErrorEPKc.exit4
	leaq	-48(%rbp), %rdi
	movq	-728(%rbp), %rax        # 8-byte Reload
	movq	%rax, -104(%rbp)
	callq	_ZN3Nan11HandleScopeD2Ev
# BB#25:
	leaq	-576(%rbp), %rdi
	callq	_ZNSsD1Ev
	leaq	-616(%rbp), %rdi
	callq	_ZNSsD1Ev
	leaq	-584(%rbp), %rdi
	callq	_ZNSsD1Ev
	leaq	-592(%rbp), %rdi
	callq	_ZNSaIcED1Ev
	jmp	.LBB17_34
.LBB17_26:
.Ltmp226:
	movl	%edx, %ecx
	movq	%rax, -600(%rbp)
	movl	%ecx, -604(%rbp)
	jmp	.LBB17_33
.LBB17_27:
.Ltmp229:
	movl	%edx, %ecx
	movq	%rax, -600(%rbp)
	movl	%ecx, -604(%rbp)
	jmp	.LBB17_32
.LBB17_28:
.Ltmp232:
	movl	%edx, %ecx
	movq	%rax, -600(%rbp)
	movl	%ecx, -604(%rbp)
	jmp	.LBB17_31
.LBB17_29:
.Ltmp235:
	movl	%edx, %ecx
	movq	%rax, -736(%rbp)        # 8-byte Spill
	movl	%ecx, -740(%rbp)        # 4-byte Spill
	jmp	.LBB17_30
.LBB17_30:                              # %.body
	movl	-740(%rbp), %eax        # 4-byte Reload
	movq	-736(%rbp), %rcx        # 8-byte Reload
	leaq	-576(%rbp), %rdi
	movq	%rcx, -600(%rbp)
	movl	%eax, -604(%rbp)
	callq	_ZNSsD1Ev
.LBB17_31:
	leaq	-616(%rbp), %rdi
	callq	_ZNSsD1Ev
.LBB17_32:
	leaq	-584(%rbp), %rdi
	callq	_ZNSsD1Ev
.LBB17_33:
	leaq	-592(%rbp), %rdi
	callq	_ZNSaIcED1Ev
	jmp	.LBB17_35
.LBB17_34:
	addq	$752, %rsp              # imm = 0x2F0
	popq	%rbp
	retq
.LBB17_35:
	movq	-600(%rbp), %rax
	movq	%rax, -656(%rbp)        # 8-byte Spill
.LBB17_36:                              # %unwind_resume
	movq	-656(%rbp), %rax        # 8-byte Reload
	movq	%rax, %rdi
	callq	_Unwind_Resume
.Ltmp257:
	.size	_Z22mmap_sync_lib_private_RKN3Nan20FunctionCallbackInfoIN2v85ValueEEE, .Ltmp257-_Z22mmap_sync_lib_private_RKN3Nan20FunctionCallbackInfoIN2v85ValueEEE
	.cfi_endproc
.Leh_func_end17:
	.section	.gcc_except_table,"a",@progbits
	.align	4
GCC_except_table17:
.Lexception17:
	.byte	255                     # @LPStart Encoding = omit
	.byte	3                       # @TType Encoding = udata4
	.asciz	"\222\201\200"          # @TType base offset
	.byte	3                       # Call site Encoding = udata4
	.ascii	"\217\001"              # Call site table length
	.long	.Leh_func_begin17-.Leh_func_begin17 # >> Call Site 1 <<
	.long	.Ltmp245-.Leh_func_begin17 #   Call between .Leh_func_begin17 and .Ltmp245
	.long	0                       #     has no landing pad
	.byte	0                       #   On action: cleanup
	.long	.Ltmp245-.Leh_func_begin17 # >> Call Site 2 <<
	.long	.Ltmp252-.Ltmp245       #   Call between .Ltmp245 and .Ltmp252
	.long	.Ltmp253-.Leh_func_begin17 #     jumps to .Ltmp253
	.byte	0                       #   On action: cleanup
	.long	.Ltmp252-.Leh_func_begin17 # >> Call Site 3 <<
	.long	.Ltmp215-.Ltmp252       #   Call between .Ltmp252 and .Ltmp215
	.long	0                       #     has no landing pad
	.byte	0                       #   On action: cleanup
	.long	.Ltmp215-.Leh_func_begin17 # >> Call Site 4 <<
	.long	.Ltmp222-.Ltmp215       #   Call between .Ltmp215 and .Ltmp222
	.long	.Ltmp223-.Leh_func_begin17 #     jumps to .Ltmp223
	.byte	0                       #   On action: cleanup
	.long	.Ltmp222-.Leh_func_begin17 # >> Call Site 5 <<
	.long	.Ltmp224-.Ltmp222       #   Call between .Ltmp222 and .Ltmp224
	.long	0                       #     has no landing pad
	.byte	0                       #   On action: cleanup
	.long	.Ltmp224-.Leh_func_begin17 # >> Call Site 6 <<
	.long	.Ltmp225-.Ltmp224       #   Call between .Ltmp224 and .Ltmp225
	.long	.Ltmp226-.Leh_func_begin17 #     jumps to .Ltmp226
	.byte	0                       #   On action: cleanup
	.long	.Ltmp227-.Leh_func_begin17 # >> Call Site 7 <<
	.long	.Ltmp228-.Ltmp227       #   Call between .Ltmp227 and .Ltmp228
	.long	.Ltmp229-.Leh_func_begin17 #     jumps to .Ltmp229
	.byte	0                       #   On action: cleanup
	.long	.Ltmp230-.Leh_func_begin17 # >> Call Site 8 <<
	.long	.Ltmp231-.Ltmp230       #   Call between .Ltmp230 and .Ltmp231
	.long	.Ltmp232-.Leh_func_begin17 #     jumps to .Ltmp232
	.byte	0                       #   On action: cleanup
	.long	.Ltmp233-.Leh_func_begin17 # >> Call Site 9 <<
	.long	.Ltmp234-.Ltmp233       #   Call between .Ltmp233 and .Ltmp234
	.long	.Ltmp235-.Leh_func_begin17 #     jumps to .Ltmp235
	.byte	0                       #   On action: cleanup
	.long	.Ltmp236-.Leh_func_begin17 # >> Call Site 10 <<
	.long	.Ltmp243-.Ltmp236       #   Call between .Ltmp236 and .Ltmp243
	.long	.Ltmp244-.Leh_func_begin17 #     jumps to .Ltmp244
	.byte	0                       #   On action: cleanup
	.long	.Ltmp243-.Leh_func_begin17 # >> Call Site 11 <<
	.long	.Leh_func_end17-.Ltmp243 #   Call between .Ltmp243 and .Leh_func_end17
	.long	0                       #     has no landing pad
	.byte	0                       #   On action: cleanup
	.align	4

	.section	.text._ZNK2v85Value9ToBooleanEv,"axG",@progbits,_ZNK2v85Value9ToBooleanEv,comdat
	.weak	_ZNK2v85Value9ToBooleanEv
	.align	16, 0x90
	.type	_ZNK2v85Value9ToBooleanEv,@function
_ZNK2v85Value9ToBooleanEv:              # @_ZNK2v85Value9ToBooleanEv
	.cfi_startproc
# BB#0:
	pushq	%rbp
.Ltmp258:
	.cfi_def_cfa_offset 16
.Ltmp259:
	.cfi_offset %rbp, -16
	movq	%rsp, %rbp
.Ltmp260:
	.cfi_def_cfa_register %rbp
	subq	$32, %rsp
	movq	%rdi, -16(%rbp)
	movq	-16(%rbp), %rdi
	movq	%rdi, -24(%rbp)         # 8-byte Spill
	callq	_ZN2v87Isolate10GetCurrentEv
	movq	-24(%rbp), %rdi         # 8-byte Reload
	movq	%rax, %rsi
	callq	_ZNK2v85Value9ToBooleanEPNS_7IsolateE
	movq	%rax, -8(%rbp)
	movq	-8(%rbp), %rax
	addq	$32, %rsp
	popq	%rbp
	retq
.Ltmp261:
	.size	_ZNK2v85Value9ToBooleanEv, .Ltmp261-_ZNK2v85Value9ToBooleanEv
	.cfi_endproc

	.text
	.globl	_Z4InitN2v86HandleINS_6ObjectEEES2_
	.align	16, 0x90
	.type	_Z4InitN2v86HandleINS_6ObjectEEES2_,@function
_Z4InitN2v86HandleINS_6ObjectEEES2_:    # @_Z4InitN2v86HandleINS_6ObjectEEES2_
	.cfi_startproc
# BB#0:
	pushq	%rbp
.Ltmp262:
	.cfi_def_cfa_offset 16
.Ltmp263:
	.cfi_offset %rbp, -16
	movq	%rsp, %rbp
.Ltmp264:
	.cfi_def_cfa_register %rbp
	subq	$592, %rsp              # imm = 0x250
	leaq	-320(%rbp), %rax
	movabsq	$.L.str14, %rcx
	movl	$1, %edx
	leaq	-296(%rbp), %r8
	movq	%rdi, -296(%rbp)
	movq	%rsi, -304(%rbp)
	movl	$5, -308(%rbp)
	movq	%r8, -320(%rbp)
	movq	%rax, %rdi
	movq	%rcx, %rsi
	callq	_ZZ4InitN2v86HandleINS_6ObjectEEES2_ENK3$_1clEPKci
	leaq	-320(%rbp), %rdi
	movabsq	$.L.str15, %rsi
	movl	$2, %edx
	callq	_ZZ4InitN2v86HandleINS_6ObjectEEES2_ENK3$_1clEPKci
	leaq	-320(%rbp), %rdi
	movabsq	$.L.str16, %rsi
	movl	$4, %edx
	callq	_ZZ4InitN2v86HandleINS_6ObjectEEES2_ENK3$_1clEPKci
	leaq	-320(%rbp), %rdi
	movabsq	$.L.str17, %rsi
	xorl	%edx, %edx
	callq	_ZZ4InitN2v86HandleINS_6ObjectEEES2_ENK3$_1clEPKci
	leaq	-320(%rbp), %rdi
	movabsq	$.L.str18, %rsi
	movl	$1, %edx
	callq	_ZZ4InitN2v86HandleINS_6ObjectEEES2_ENK3$_1clEPKci
	leaq	-320(%rbp), %rdi
	movabsq	$.L.str19, %rsi
	movl	$2, %edx
	callq	_ZZ4InitN2v86HandleINS_6ObjectEEES2_ENK3$_1clEPKci
	leaq	-320(%rbp), %rdi
	movabsq	$.L.str20, %rsi
	xorl	%edx, %edx
	callq	_ZZ4InitN2v86HandleINS_6ObjectEEES2_ENK3$_1clEPKci
	leaq	-320(%rbp), %rdi
	movabsq	$.L.str21, %rsi
	movl	$1, %edx
	callq	_ZZ4InitN2v86HandleINS_6ObjectEEES2_ENK3$_1clEPKci
	leaq	-320(%rbp), %rdi
	movabsq	$.L.str22, %rsi
	movl	$2, %edx
	callq	_ZZ4InitN2v86HandleINS_6ObjectEEES2_ENK3$_1clEPKci
	leaq	-320(%rbp), %rdi
	movabsq	$.L.str23, %rsi
	movl	$3, %edx
	callq	_ZZ4InitN2v86HandleINS_6ObjectEEES2_ENK3$_1clEPKci
	leaq	-320(%rbp), %rdi
	movabsq	$.L.str24, %rsi
	movl	$4, %edx
	callq	_ZZ4InitN2v86HandleINS_6ObjectEEES2_ENK3$_1clEPKci
	movl	$30, %edi
	callq	sysconf
	leaq	-320(%rbp), %rdi
	movabsq	$.L.str25, %rsi
	movl	%eax, %edx
	callq	_ZZ4InitN2v86HandleINS_6ObjectEEES2_ENK3$_1clEPKci
	movabsq	$.L.str26, %rdi
	leaq	-296(%rbp), %rax
	movq	%rax, -288(%rbp)
	movq	-288(%rbp), %rax
	movq	(%rax), %rax
	movq	%rax, -544(%rbp)        # 8-byte Spill
	callq	_ZN3Nan3NewEPKc
	movabsq	$_Z8mmap_mapRKN3Nan20FunctionCallbackInfoIN2v85ValueEEE, %rdi
	leaq	-384(%rbp), %rcx
	leaq	-168(%rbp), %rsi
	leaq	-328(%rbp), %r8
	leaq	-352(%rbp), %r9
	movq	%rax, -352(%rbp)
	movq	%r9, -248(%rbp)
	movq	-248(%rbp), %rax
	movq	(%rax), %rax
	movq	%rax, -240(%rbp)
	movq	-240(%rbp), %rax
	movq	%rax, -344(%rbp)
	movq	-344(%rbp), %rax
	movq	%rax, -336(%rbp)
	movq	-336(%rbp), %rax
	movq	%rax, -168(%rbp)
	movq	%r8, -176(%rbp)
	movq	-176(%rbp), %rax
	movq	%rsi, -160(%rbp)
	movq	-160(%rbp), %rsi
	movq	(%rsi), %rsi
	movq	%rsi, (%rax)
	movq	%rcx, -112(%rbp)
	movq	-112(%rbp), %rax
	movq	%rax, -104(%rbp)
	movq	-104(%rbp), %rax
	movq	$0, (%rax)
	movq	-384(%rbp), %rsi
	callq	_ZN3Nan3NewIN2v816FunctionTemplateEEENS_3imp7FactoryIT_E8return_tEPFvRKNS_20FunctionCallbackInfoINS1_5ValueEEEENS1_5LocalIS9_EE
	leaq	-392(%rbp), %rcx
	movq	%rax, -392(%rbp)
	movq	%rcx, -40(%rbp)
	movq	-40(%rbp), %rax
	movq	(%rax), %rdi
	callq	_ZN2v816FunctionTemplate11GetFunctionEv
	movl	$5, %ecx
	leaq	-16(%rbp), %rsi
	leaq	-360(%rbp), %rdi
	movq	%rax, -376(%rbp)
	movq	-376(%rbp), %rax
	movq	%rax, -368(%rbp)
	movq	-368(%rbp), %rax
	movq	%rax, -16(%rbp)
	movq	%rdi, -24(%rbp)
	movq	-24(%rbp), %rax
	movq	%rsi, -8(%rbp)
	movq	-8(%rbp), %rsi
	movq	(%rsi), %rsi
	movq	%rsi, (%rax)
	movq	-328(%rbp), %rsi
	movq	-360(%rbp), %rdx
	movq	-544(%rbp), %rdi        # 8-byte Reload
	callq	_ZN2v86Object8ForceSetENS_6HandleINS_5ValueEEES3_NS_17PropertyAttributeE
	movabsq	$.L.str27, %rdi
	leaq	-296(%rbp), %rdx
	movq	%rdx, -32(%rbp)
	movq	-32(%rbp), %rdx
	movq	(%rdx), %rdx
	movb	%al, -545(%rbp)         # 1-byte Spill
	movq	%rdx, -560(%rbp)        # 8-byte Spill
	callq	_ZN3Nan3NewEPKc
	movabsq	$_Z11mmap_adviseRKN3Nan20FunctionCallbackInfoIN2v85ValueEEE, %rdi
	leaq	-456(%rbp), %rdx
	leaq	-72(%rbp), %rsi
	leaq	-400(%rbp), %r8
	leaq	-424(%rbp), %r9
	movq	%rax, -424(%rbp)
	movq	%r9, -56(%rbp)
	movq	-56(%rbp), %rax
	movq	(%rax), %rax
	movq	%rax, -48(%rbp)
	movq	-48(%rbp), %rax
	movq	%rax, -416(%rbp)
	movq	-416(%rbp), %rax
	movq	%rax, -408(%rbp)
	movq	-408(%rbp), %rax
	movq	%rax, -72(%rbp)
	movq	%r8, -80(%rbp)
	movq	-80(%rbp), %rax
	movq	%rsi, -64(%rbp)
	movq	-64(%rbp), %rsi
	movq	(%rsi), %rsi
	movq	%rsi, (%rax)
	movq	%rdx, -96(%rbp)
	movq	-96(%rbp), %rax
	movq	%rax, -88(%rbp)
	movq	-88(%rbp), %rax
	movq	$0, (%rax)
	movq	-456(%rbp), %rsi
	callq	_ZN3Nan3NewIN2v816FunctionTemplateEEENS_3imp7FactoryIT_E8return_tEPFvRKNS_20FunctionCallbackInfoINS1_5ValueEEEENS1_5LocalIS9_EE
	leaq	-464(%rbp), %rdx
	movq	%rax, -464(%rbp)
	movq	%rdx, -120(%rbp)
	movq	-120(%rbp), %rax
	movq	(%rax), %rdi
	callq	_ZN2v816FunctionTemplate11GetFunctionEv
	movl	$5, %ecx
	leaq	-136(%rbp), %rdx
	leaq	-432(%rbp), %rsi
	movq	%rax, -448(%rbp)
	movq	-448(%rbp), %rax
	movq	%rax, -440(%rbp)
	movq	-440(%rbp), %rax
	movq	%rax, -136(%rbp)
	movq	%rsi, -144(%rbp)
	movq	-144(%rbp), %rax
	movq	%rdx, -128(%rbp)
	movq	-128(%rbp), %rdx
	movq	(%rdx), %rdx
	movq	%rdx, (%rax)
	movq	-400(%rbp), %rsi
	movq	-432(%rbp), %rdx
	movq	-560(%rbp), %rdi        # 8-byte Reload
	callq	_ZN2v86Object8ForceSetENS_6HandleINS_5ValueEEES3_NS_17PropertyAttributeE
	movabsq	$.L.str28, %rdi
	leaq	-296(%rbp), %rdx
	movq	%rdx, -152(%rbp)
	movq	-152(%rbp), %rdx
	movq	(%rdx), %rdx
	movb	%al, -561(%rbp)         # 1-byte Spill
	movq	%rdx, -576(%rbp)        # 8-byte Spill
	callq	_ZN3Nan3NewEPKc
	movabsq	$_Z22mmap_sync_lib_private_RKN3Nan20FunctionCallbackInfoIN2v85ValueEEE, %rdi
	leaq	-528(%rbp), %rdx
	leaq	-208(%rbp), %rsi
	leaq	-472(%rbp), %r8
	leaq	-496(%rbp), %r9
	movq	%rax, -496(%rbp)
	movq	%r9, -192(%rbp)
	movq	-192(%rbp), %rax
	movq	(%rax), %rax
	movq	%rax, -184(%rbp)
	movq	-184(%rbp), %rax
	movq	%rax, -488(%rbp)
	movq	-488(%rbp), %rax
	movq	%rax, -480(%rbp)
	movq	-480(%rbp), %rax
	movq	%rax, -208(%rbp)
	movq	%r8, -216(%rbp)
	movq	-216(%rbp), %rax
	movq	%rsi, -200(%rbp)
	movq	-200(%rbp), %rsi
	movq	(%rsi), %rsi
	movq	%rsi, (%rax)
	movq	%rdx, -232(%rbp)
	movq	-232(%rbp), %rax
	movq	%rax, -224(%rbp)
	movq	-224(%rbp), %rax
	movq	$0, (%rax)
	movq	-528(%rbp), %rsi
	callq	_ZN3Nan3NewIN2v816FunctionTemplateEEENS_3imp7FactoryIT_E8return_tEPFvRKNS_20FunctionCallbackInfoINS1_5ValueEEEENS1_5LocalIS9_EE
	leaq	-536(%rbp), %rdx
	movq	%rax, -536(%rbp)
	movq	%rdx, -256(%rbp)
	movq	-256(%rbp), %rax
	movq	(%rax), %rdi
	callq	_ZN2v816FunctionTemplate11GetFunctionEv
	xorl	%ecx, %ecx
	leaq	-272(%rbp), %rdx
	leaq	-504(%rbp), %rsi
	movq	%rax, -520(%rbp)
	movq	-520(%rbp), %rax
	movq	%rax, -512(%rbp)
	movq	-512(%rbp), %rax
	movq	%rax, -272(%rbp)
	movq	%rsi, -280(%rbp)
	movq	-280(%rbp), %rax
	movq	%rdx, -264(%rbp)
	movq	-264(%rbp), %rdx
	movq	(%rdx), %rdx
	movq	%rdx, (%rax)
	movq	-472(%rbp), %rsi
	movq	-504(%rbp), %rdx
	movq	-576(%rbp), %rdi        # 8-byte Reload
	callq	_ZN2v86Object8ForceSetENS_6HandleINS_5ValueEEES3_NS_17PropertyAttributeE
	movb	%al, -577(%rbp)         # 1-byte Spill
	addq	$592, %rsp              # imm = 0x250
	popq	%rbp
	retq
.Ltmp265:
	.size	_Z4InitN2v86HandleINS_6ObjectEEES2_, .Ltmp265-_Z4InitN2v86HandleINS_6ObjectEEES2_
	.cfi_endproc

	.align	16, 0x90
	.type	_ZZ4InitN2v86HandleINS_6ObjectEEES2_ENK3$_1clEPKci,@function
_ZZ4InitN2v86HandleINS_6ObjectEEES2_ENK3$_1clEPKci: # @"_ZZ4InitN2v86HandleINS_6ObjectEEES2_ENK3$_1clEPKci"
	.cfi_startproc
# BB#0:
	pushq	%rbp
.Ltmp266:
	.cfi_def_cfa_offset 16
.Ltmp267:
	.cfi_offset %rbp, -16
	movq	%rsp, %rbp
.Ltmp268:
	.cfi_def_cfa_register %rbp
	subq	$176, %rsp
	movq	%rdi, -80(%rbp)
	movq	%rsi, -88(%rbp)
	movl	%edx, -92(%rbp)
	movq	-80(%rbp), %rsi
	movq	(%rsi), %rsi
	movq	%rsi, -72(%rbp)
	movq	-72(%rbp), %rsi
	movq	(%rsi), %rdi
	movq	-88(%rbp), %rsi
	movq	%rdi, -160(%rbp)        # 8-byte Spill
	movq	%rsi, %rdi
	callq	_ZN3Nan3NewEPKc
	leaq	-16(%rbp), %rsi
	leaq	-104(%rbp), %rdi
	leaq	-128(%rbp), %rcx
	movq	%rax, -128(%rbp)
	movq	%rcx, -40(%rbp)
	movq	-40(%rbp), %rax
	movq	(%rax), %rax
	movq	%rax, -32(%rbp)
	movq	-32(%rbp), %rax
	movq	%rax, -120(%rbp)
	movq	-120(%rbp), %rax
	movq	%rax, -112(%rbp)
	movq	-112(%rbp), %rax
	movq	%rax, -16(%rbp)
	movq	%rdi, -24(%rbp)
	movq	-24(%rbp), %rax
	movq	%rsi, -8(%rbp)
	movq	-8(%rbp), %rcx
	movq	(%rcx), %rcx
	movq	%rcx, (%rax)
	movl	-92(%rbp), %edi
	callq	_ZN3Nan3NewEi
	movl	$5, %ecx
	leaq	-56(%rbp), %rsi
	leaq	-136(%rbp), %r8
	movq	%rax, -152(%rbp)
	movq	-152(%rbp), %rax
	movq	%rax, -144(%rbp)
	movq	-144(%rbp), %rax
	movq	%rax, -56(%rbp)
	movq	%r8, -64(%rbp)
	movq	-64(%rbp), %rax
	movq	%rsi, -48(%rbp)
	movq	-48(%rbp), %rsi
	movq	(%rsi), %rsi
	movq	%rsi, (%rax)
	movq	-104(%rbp), %rsi
	movq	-136(%rbp), %rdx
	movq	-160(%rbp), %rdi        # 8-byte Reload
	callq	_ZN2v86Object8ForceSetENS_6HandleINS_5ValueEEES3_NS_17PropertyAttributeE
	movb	%al, -161(%rbp)         # 1-byte Spill
	addq	$176, %rsp
	popq	%rbp
	retq
.Ltmp269:
	.size	_ZZ4InitN2v86HandleINS_6ObjectEEES2_ENK3$_1clEPKci, .Ltmp269-_ZZ4InitN2v86HandleINS_6ObjectEEES2_ENK3$_1clEPKci
	.cfi_endproc

	.section	.text._ZN3Nan3NewEPKc,"axG",@progbits,_ZN3Nan3NewEPKc,comdat
	.weak	_ZN3Nan3NewEPKc
	.align	16, 0x90
	.type	_ZN3Nan3NewEPKc,@function
_ZN3Nan3NewEPKc:                        # @_ZN3Nan3NewEPKc
	.cfi_startproc
# BB#0:
	pushq	%rbp
.Ltmp270:
	.cfi_def_cfa_offset 16
.Ltmp271:
	.cfi_offset %rbp, -16
	movq	%rsp, %rbp
.Ltmp272:
	.cfi_def_cfa_register %rbp
	subq	$16, %rsp
	movq	%rdi, -16(%rbp)
	movq	-16(%rbp), %rdi
	callq	_ZN3Nan3NewIN2v86StringEPKcEENS_3imp7FactoryIT_E8return_tET0_
	movq	%rax, -8(%rbp)
	movq	-8(%rbp), %rax
	addq	$16, %rsp
	popq	%rbp
	retq
.Ltmp273:
	.size	_ZN3Nan3NewEPKc, .Ltmp273-_ZN3Nan3NewEPKc
	.cfi_endproc

	.section	.text._ZN3Nan3NewIN2v816FunctionTemplateEEENS_3imp7FactoryIT_E8return_tEPFvRKNS_20FunctionCallbackInfoINS1_5ValueEEEENS1_5LocalIS9_EE,"axG",@progbits,_ZN3Nan3NewIN2v816FunctionTemplateEEENS_3imp7FactoryIT_E8return_tEPFvRKNS_20FunctionCallbackInfoINS1_5ValueEEEENS1_5LocalIS9_EE,comdat
	.weak	_ZN3Nan3NewIN2v816FunctionTemplateEEENS_3imp7FactoryIT_E8return_tEPFvRKNS_20FunctionCallbackInfoINS1_5ValueEEEENS1_5LocalIS9_EE
	.align	16, 0x90
	.type	_ZN3Nan3NewIN2v816FunctionTemplateEEENS_3imp7FactoryIT_E8return_tEPFvRKNS_20FunctionCallbackInfoINS1_5ValueEEEENS1_5LocalIS9_EE,@function
_ZN3Nan3NewIN2v816FunctionTemplateEEENS_3imp7FactoryIT_E8return_tEPFvRKNS_20FunctionCallbackInfoINS1_5ValueEEEENS1_5LocalIS9_EE: # @_ZN3Nan3NewIN2v816FunctionTemplateEEENS_3imp7FactoryIT_E8return_tEPFvRKNS_20FunctionCallbackInfoINS1_5ValueEEEENS1_5LocalIS9_EE
	.cfi_startproc
# BB#0:
	pushq	%rbp
.Ltmp274:
	.cfi_def_cfa_offset 16
.Ltmp275:
	.cfi_offset %rbp, -16
	movq	%rsp, %rbp
.Ltmp276:
	.cfi_def_cfa_register %rbp
	subq	$64, %rsp
	leaq	-56(%rbp), %rax
	movq	%rsi, -32(%rbp)
	movq	%rdi, -40(%rbp)
	movq	-40(%rbp), %rdi
	movq	-32(%rbp), %rsi
	movq	%rsi, -48(%rbp)
	movq	%rax, -16(%rbp)
	movq	-16(%rbp), %rax
	movq	%rax, -8(%rbp)
	movq	-8(%rbp), %rax
	movq	$0, (%rax)
	movq	-48(%rbp), %rsi
	movq	-56(%rbp), %rdx
	callq	_ZN3Nan3imp7FactoryIN2v816FunctionTemplateEE3NewEPFvRKNS_20FunctionCallbackInfoINS2_5ValueEEEENS2_5LocalIS6_EENSC_INS2_9SignatureEEE
	movq	%rax, -24(%rbp)
	movq	-24(%rbp), %rax
	addq	$64, %rsp
	popq	%rbp
	retq
.Ltmp277:
	.size	_ZN3Nan3NewIN2v816FunctionTemplateEEENS_3imp7FactoryIT_E8return_tEPFvRKNS_20FunctionCallbackInfoINS1_5ValueEEEENS1_5LocalIS9_EE, .Ltmp277-_ZN3Nan3NewIN2v816FunctionTemplateEEENS_3imp7FactoryIT_E8return_tEPFvRKNS_20FunctionCallbackInfoINS1_5ValueEEEENS1_5LocalIS9_EE
	.cfi_endproc

	.text
	.align	16, 0x90
	.type	_Z17_register_mmap_iov,@function
_Z17_register_mmap_iov:                 # @_Z17_register_mmap_iov
	.cfi_startproc
# BB#0:
	pushq	%rbp
.Ltmp278:
	.cfi_def_cfa_offset 16
.Ltmp279:
	.cfi_offset %rbp, -16
	movq	%rsp, %rbp
.Ltmp280:
	.cfi_def_cfa_register %rbp
	movabsq	$_Z7_module, %rax
	movq	%rax, %rdi
	callq	node_module_register
	popq	%rbp
	retq
.Ltmp281:
	.size	_Z17_register_mmap_iov, .Ltmp281-_Z17_register_mmap_iov
	.cfi_endproc

	.section	.text._ZN3Nan11ReturnValueIN2v85ValueEEC2IS2_EERKNS1_11ReturnValueIT_EE,"axG",@progbits,_ZN3Nan11ReturnValueIN2v85ValueEEC2IS2_EERKNS1_11ReturnValueIT_EE,comdat
	.weak	_ZN3Nan11ReturnValueIN2v85ValueEEC2IS2_EERKNS1_11ReturnValueIT_EE
	.align	16, 0x90
	.type	_ZN3Nan11ReturnValueIN2v85ValueEEC2IS2_EERKNS1_11ReturnValueIT_EE,@function
_ZN3Nan11ReturnValueIN2v85ValueEEC2IS2_EERKNS1_11ReturnValueIT_EE: # @_ZN3Nan11ReturnValueIN2v85ValueEEC2IS2_EERKNS1_11ReturnValueIT_EE
	.cfi_startproc
# BB#0:
	pushq	%rbp
.Ltmp282:
	.cfi_def_cfa_offset 16
.Ltmp283:
	.cfi_offset %rbp, -16
	movq	%rsp, %rbp
.Ltmp284:
	.cfi_def_cfa_register %rbp
	movq	%rdi, -8(%rbp)
	movq	%rsi, -16(%rbp)
	movq	-8(%rbp), %rsi
	movq	-16(%rbp), %rdi
	movq	(%rdi), %rdi
	movq	%rdi, (%rsi)
	popq	%rbp
	retq
.Ltmp285:
	.size	_ZN3Nan11ReturnValueIN2v85ValueEEC2IS2_EERKNS1_11ReturnValueIT_EE, .Ltmp285-_ZN3Nan11ReturnValueIN2v85ValueEEC2IS2_EERKNS1_11ReturnValueIT_EE
	.cfi_endproc

	.section	.text._ZNSt10shared_ptrINSt13__future_base13_State_baseV2EEC2Ev,"axG",@progbits,_ZNSt10shared_ptrINSt13__future_base13_State_baseV2EEC2Ev,comdat
	.weak	_ZNSt10shared_ptrINSt13__future_base13_State_baseV2EEC2Ev
	.align	16, 0x90
	.type	_ZNSt10shared_ptrINSt13__future_base13_State_baseV2EEC2Ev,@function
_ZNSt10shared_ptrINSt13__future_base13_State_baseV2EEC2Ev: # @_ZNSt10shared_ptrINSt13__future_base13_State_baseV2EEC2Ev
	.cfi_startproc
# BB#0:
	pushq	%rbp
.Ltmp286:
	.cfi_def_cfa_offset 16
.Ltmp287:
	.cfi_offset %rbp, -16
	movq	%rsp, %rbp
.Ltmp288:
	.cfi_def_cfa_register %rbp
	subq	$16, %rsp
	movq	%rdi, -8(%rbp)
	movq	-8(%rbp), %rdi
	callq	_ZNSt12__shared_ptrINSt13__future_base13_State_baseV2ELN9__gnu_cxx12_Lock_policyE2EEC2Ev
	addq	$16, %rsp
	popq	%rbp
	retq
.Ltmp289:
	.size	_ZNSt10shared_ptrINSt13__future_base13_State_baseV2EEC2Ev, .Ltmp289-_ZNSt10shared_ptrINSt13__future_base13_State_baseV2EEC2Ev
	.cfi_endproc

	.section	.text._ZStanSt6launchS_,"axG",@progbits,_ZStanSt6launchS_,comdat
	.weak	_ZStanSt6launchS_
	.align	16, 0x90
	.type	_ZStanSt6launchS_,@function
_ZStanSt6launchS_:                      # @_ZStanSt6launchS_
	.cfi_startproc
# BB#0:
	pushq	%rbp
.Ltmp290:
	.cfi_def_cfa_offset 16
.Ltmp291:
	.cfi_offset %rbp, -16
	movq	%rsp, %rbp
.Ltmp292:
	.cfi_def_cfa_register %rbp
	movl	%edi, -4(%rbp)
	movl	%esi, -8(%rbp)
	movl	-4(%rbp), %esi
	andl	-8(%rbp), %esi
	movl	%esi, %eax
	popq	%rbp
	retq
.Ltmp293:
	.size	_ZStanSt6launchS_, .Ltmp293-_ZStanSt6launchS_
	.cfi_endproc

	.section	.text._ZStorSt6launchS_,"axG",@progbits,_ZStorSt6launchS_,comdat
	.weak	_ZStorSt6launchS_
	.align	16, 0x90
	.type	_ZStorSt6launchS_,@function
_ZStorSt6launchS_:                      # @_ZStorSt6launchS_
	.cfi_startproc
# BB#0:
	pushq	%rbp
.Ltmp294:
	.cfi_def_cfa_offset 16
.Ltmp295:
	.cfi_offset %rbp, -16
	movq	%rsp, %rbp
.Ltmp296:
	.cfi_def_cfa_register %rbp
	movl	%edi, -4(%rbp)
	movl	%esi, -8(%rbp)
	movl	-4(%rbp), %esi
	orl	-8(%rbp), %esi
	movl	%esi, %eax
	popq	%rbp
	retq
.Ltmp297:
	.size	_ZStorSt6launchS_, .Ltmp297-_ZStorSt6launchS_
	.cfi_endproc

	.section	.text._ZNSt10shared_ptrINSt13__future_base13_State_baseV2EEaSEOS2_,"axG",@progbits,_ZNSt10shared_ptrINSt13__future_base13_State_baseV2EEaSEOS2_,comdat
	.weak	_ZNSt10shared_ptrINSt13__future_base13_State_baseV2EEaSEOS2_
	.align	16, 0x90
	.type	_ZNSt10shared_ptrINSt13__future_base13_State_baseV2EEaSEOS2_,@function
_ZNSt10shared_ptrINSt13__future_base13_State_baseV2EEaSEOS2_: # @_ZNSt10shared_ptrINSt13__future_base13_State_baseV2EEaSEOS2_
	.cfi_startproc
# BB#0:
	pushq	%rbp
.Ltmp298:
	.cfi_def_cfa_offset 16
.Ltmp299:
	.cfi_offset %rbp, -16
	movq	%rsp, %rbp
.Ltmp300:
	.cfi_def_cfa_register %rbp
	subq	$48, %rsp
	movq	%rdi, -8(%rbp)
	movq	%rsi, -16(%rbp)
	movq	-8(%rbp), %rsi
	movq	%rsi, %rdi
	movq	-16(%rbp), %rax
	movq	%rdi, -24(%rbp)         # 8-byte Spill
	movq	%rax, %rdi
	movq	%rsi, -32(%rbp)         # 8-byte Spill
	callq	_ZSt4moveIRSt10shared_ptrINSt13__future_base13_State_baseV2EEEONSt16remove_referenceIT_E4typeEOS6_
	movq	-24(%rbp), %rdi         # 8-byte Reload
	movq	%rax, %rsi
	callq	_ZNSt12__shared_ptrINSt13__future_base13_State_baseV2ELN9__gnu_cxx12_Lock_policyE2EEaSEOS4_
	movq	-32(%rbp), %rsi         # 8-byte Reload
	movq	%rax, -40(%rbp)         # 8-byte Spill
	movq	%rsi, %rax
	addq	$48, %rsp
	popq	%rbp
	retq
.Ltmp301:
	.size	_ZNSt10shared_ptrINSt13__future_base13_State_baseV2EEaSEOS2_, .Ltmp301-_ZNSt10shared_ptrINSt13__future_base13_State_baseV2EEaSEOS2_
	.cfi_endproc

	.text
	.align	16, 0x90
	.type	_ZNSt13__future_base19_S_make_async_stateISt12_Bind_simpleIFZ8mmap_mapRKN3Nan20FunctionCallbackInfoIN2v85ValueEEEE3$_0vEEEESt10shared_ptrINS_13_State_baseV2EEOT_,@function
_ZNSt13__future_base19_S_make_async_stateISt12_Bind_simpleIFZ8mmap_mapRKN3Nan20FunctionCallbackInfoIN2v85ValueEEEE3$_0vEEEESt10shared_ptrINS_13_State_baseV2EEOT_: # @"_ZNSt13__future_base19_S_make_async_stateISt12_Bind_simpleIFZ8mmap_mapRKN3Nan20FunctionCallbackInfoIN2v85ValueEEEE3$_0vEEEESt10shared_ptrINS_13_State_baseV2EEOT_"
	.cfi_startproc
# BB#0:
	pushq	%rbp
.Ltmp302:
	.cfi_def_cfa_offset 16
.Ltmp303:
	.cfi_offset %rbp, -16
	movq	%rsp, %rbp
.Ltmp304:
	.cfi_def_cfa_register %rbp
	subq	$48, %rsp
	movq	%rdi, %rax
	movq	%rsi, -8(%rbp)
	movq	-8(%rbp), %rsi
	movq	%rdi, -32(%rbp)         # 8-byte Spill
	movq	%rsi, %rdi
	movq	%rax, -40(%rbp)         # 8-byte Spill
	callq	_ZSt4moveIRSt12_Bind_simpleIFZ8mmap_mapRKN3Nan20FunctionCallbackInfoIN2v85ValueEEEE3$_0vEEEONSt16remove_referenceIT_E4typeEOSD_
	leaq	-24(%rbp), %rdi
	movq	%rax, %rsi
	callq	_ZSt11make_sharedINSt13__future_base17_Async_state_implISt12_Bind_simpleIFZ8mmap_mapRKN3Nan20FunctionCallbackInfoIN2v85ValueEEEE3$_0vEEvEEJSC_EESt10shared_ptrIT_EDpOT0_
	leaq	-24(%rbp), %rsi
	movq	-32(%rbp), %rdi         # 8-byte Reload
	callq	_ZNSt10shared_ptrINSt13__future_base13_State_baseV2EEC2INS0_17_Async_state_implISt12_Bind_simpleIFZ8mmap_mapRKN3Nan20FunctionCallbackInfoIN2v85ValueEEEE3$_0vEEvEEvEEOS_IT_E
	leaq	-24(%rbp), %rdi
	callq	_ZNSt10shared_ptrINSt13__future_base17_Async_state_implISt12_Bind_simpleIFZ8mmap_mapRKN3Nan20FunctionCallbackInfoIN2v85ValueEEEE3$_0vEEvEEED2Ev
	movq	-40(%rbp), %rax         # 8-byte Reload
	addq	$48, %rsp
	popq	%rbp
	retq
.Ltmp305:
	.size	_ZNSt13__future_base19_S_make_async_stateISt12_Bind_simpleIFZ8mmap_mapRKN3Nan20FunctionCallbackInfoIN2v85ValueEEEE3$_0vEEEESt10shared_ptrINS_13_State_baseV2EEOT_, .Ltmp305-_ZNSt13__future_base19_S_make_async_stateISt12_Bind_simpleIFZ8mmap_mapRKN3Nan20FunctionCallbackInfoIN2v85ValueEEEE3$_0vEEEESt10shared_ptrINS_13_State_baseV2EEOT_
	.cfi_endproc

	.align	16, 0x90
	.type	_ZSt13__bind_simpleIZ8mmap_mapRKN3Nan20FunctionCallbackInfoIN2v85ValueEEEE3$_0JEENSt19_Bind_simple_helperIT_JDpT0_EE6__typeEOS9_DpOSA_,@function
_ZSt13__bind_simpleIZ8mmap_mapRKN3Nan20FunctionCallbackInfoIN2v85ValueEEEE3$_0JEENSt19_Bind_simple_helperIT_JDpT0_EE6__typeEOS9_DpOSA_: # @"_ZSt13__bind_simpleIZ8mmap_mapRKN3Nan20FunctionCallbackInfoIN2v85ValueEEEE3$_0JEENSt19_Bind_simple_helperIT_JDpT0_EE6__typeEOS9_DpOSA_"
	.cfi_startproc
# BB#0:
	pushq	%rbp
.Ltmp306:
	.cfi_def_cfa_offset 16
.Ltmp307:
	.cfi_offset %rbp, -16
	movq	%rsp, %rbp
.Ltmp308:
	.cfi_def_cfa_register %rbp
	subq	$32, %rsp
	movq	%rdi, %rax
	movq	%rsi, -8(%rbp)
	movq	-8(%rbp), %rsi
	movq	%rdi, -16(%rbp)         # 8-byte Spill
	movq	%rsi, %rdi
	movq	%rax, -24(%rbp)         # 8-byte Spill
	callq	_ZSt7forwardIZ8mmap_mapRKN3Nan20FunctionCallbackInfoIN2v85ValueEEEE3$_0EOT_RNSt16remove_referenceIS8_E4typeE
	movq	%rax, %rdi
	callq	_ZNSt26_Maybe_wrap_member_pointerIZ8mmap_mapRKN3Nan20FunctionCallbackInfoIN2v85ValueEEEE3$_0E9__do_wrapEOS7_
	movq	-16(%rbp), %rdi         # 8-byte Reload
	movq	%rax, %rsi
	callq	_ZNSt12_Bind_simpleIFZ8mmap_mapRKN3Nan20FunctionCallbackInfoIN2v85ValueEEEE3$_0vEEC2IJEvEEOS7_DpOT_
	movq	-24(%rbp), %rax         # 8-byte Reload
	addq	$32, %rsp
	popq	%rbp
	retq
.Ltmp309:
	.size	_ZSt13__bind_simpleIZ8mmap_mapRKN3Nan20FunctionCallbackInfoIN2v85ValueEEEE3$_0JEENSt19_Bind_simple_helperIT_JDpT0_EE6__typeEOS9_DpOSA_, .Ltmp309-_ZSt13__bind_simpleIZ8mmap_mapRKN3Nan20FunctionCallbackInfoIN2v85ValueEEEE3$_0JEENSt19_Bind_simple_helperIT_JDpT0_EE6__typeEOS9_DpOSA_
	.cfi_endproc

	.align	16, 0x90
	.type	_ZSt7forwardIZ8mmap_mapRKN3Nan20FunctionCallbackInfoIN2v85ValueEEEE3$_0EOT_RNSt16remove_referenceIS8_E4typeE,@function
_ZSt7forwardIZ8mmap_mapRKN3Nan20FunctionCallbackInfoIN2v85ValueEEEE3$_0EOT_RNSt16remove_referenceIS8_E4typeE: # @"_ZSt7forwardIZ8mmap_mapRKN3Nan20FunctionCallbackInfoIN2v85ValueEEEE3$_0EOT_RNSt16remove_referenceIS8_E4typeE"
	.cfi_startproc
# BB#0:
	pushq	%rbp
.Ltmp310:
	.cfi_def_cfa_offset 16
.Ltmp311:
	.cfi_offset %rbp, -16
	movq	%rsp, %rbp
.Ltmp312:
	.cfi_def_cfa_register %rbp
	movq	%rdi, -8(%rbp)
	movq	-8(%rbp), %rax
	popq	%rbp
	retq
.Ltmp313:
	.size	_ZSt7forwardIZ8mmap_mapRKN3Nan20FunctionCallbackInfoIN2v85ValueEEEE3$_0EOT_RNSt16remove_referenceIS8_E4typeE, .Ltmp313-_ZSt7forwardIZ8mmap_mapRKN3Nan20FunctionCallbackInfoIN2v85ValueEEEE3$_0EOT_RNSt16remove_referenceIS8_E4typeE
	.cfi_endproc

	.section	.text._ZNSt10shared_ptrINSt13__future_base13_State_baseV2EED2Ev,"axG",@progbits,_ZNSt10shared_ptrINSt13__future_base13_State_baseV2EED2Ev,comdat
	.weak	_ZNSt10shared_ptrINSt13__future_base13_State_baseV2EED2Ev
	.align	16, 0x90
	.type	_ZNSt10shared_ptrINSt13__future_base13_State_baseV2EED2Ev,@function
_ZNSt10shared_ptrINSt13__future_base13_State_baseV2EED2Ev: # @_ZNSt10shared_ptrINSt13__future_base13_State_baseV2EED2Ev
	.cfi_startproc
# BB#0:
	pushq	%rbp
.Ltmp314:
	.cfi_def_cfa_offset 16
.Ltmp315:
	.cfi_offset %rbp, -16
	movq	%rsp, %rbp
.Ltmp316:
	.cfi_def_cfa_register %rbp
	subq	$16, %rsp
	movq	%rdi, -8(%rbp)
	movq	-8(%rbp), %rdi
	callq	_ZNSt12__shared_ptrINSt13__future_base13_State_baseV2ELN9__gnu_cxx12_Lock_policyE2EED2Ev
	addq	$16, %rsp
	popq	%rbp
	retq
.Ltmp317:
	.size	_ZNSt10shared_ptrINSt13__future_base13_State_baseV2EED2Ev, .Ltmp317-_ZNSt10shared_ptrINSt13__future_base13_State_baseV2EED2Ev
	.cfi_endproc

	.text
	.align	16, 0x90
	.type	_ZNSt13__future_base22_S_make_deferred_stateISt12_Bind_simpleIFZ8mmap_mapRKN3Nan20FunctionCallbackInfoIN2v85ValueEEEE3$_0vEEEESt10shared_ptrINS_13_State_baseV2EEOT_,@function
_ZNSt13__future_base22_S_make_deferred_stateISt12_Bind_simpleIFZ8mmap_mapRKN3Nan20FunctionCallbackInfoIN2v85ValueEEEE3$_0vEEEESt10shared_ptrINS_13_State_baseV2EEOT_: # @"_ZNSt13__future_base22_S_make_deferred_stateISt12_Bind_simpleIFZ8mmap_mapRKN3Nan20FunctionCallbackInfoIN2v85ValueEEEE3$_0vEEEESt10shared_ptrINS_13_State_baseV2EEOT_"
	.cfi_startproc
# BB#0:
	pushq	%rbp
.Ltmp318:
	.cfi_def_cfa_offset 16
.Ltmp319:
	.cfi_offset %rbp, -16
	movq	%rsp, %rbp
.Ltmp320:
	.cfi_def_cfa_register %rbp
	subq	$48, %rsp
	movq	%rdi, %rax
	movq	%rsi, -8(%rbp)
	movq	-8(%rbp), %rsi
	movq	%rdi, -32(%rbp)         # 8-byte Spill
	movq	%rsi, %rdi
	movq	%rax, -40(%rbp)         # 8-byte Spill
	callq	_ZSt4moveIRSt12_Bind_simpleIFZ8mmap_mapRKN3Nan20FunctionCallbackInfoIN2v85ValueEEEE3$_0vEEEONSt16remove_referenceIT_E4typeEOSD_
	leaq	-24(%rbp), %rdi
	movq	%rax, %rsi
	callq	_ZSt11make_sharedINSt13__future_base15_Deferred_stateISt12_Bind_simpleIFZ8mmap_mapRKN3Nan20FunctionCallbackInfoIN2v85ValueEEEE3$_0vEEvEEJSC_EESt10shared_ptrIT_EDpOT0_
	leaq	-24(%rbp), %rsi
	movq	-32(%rbp), %rdi         # 8-byte Reload
	callq	_ZNSt10shared_ptrINSt13__future_base13_State_baseV2EEC2INS0_15_Deferred_stateISt12_Bind_simpleIFZ8mmap_mapRKN3Nan20FunctionCallbackInfoIN2v85ValueEEEE3$_0vEEvEEvEEOS_IT_E
	leaq	-24(%rbp), %rdi
	callq	_ZNSt10shared_ptrINSt13__future_base15_Deferred_stateISt12_Bind_simpleIFZ8mmap_mapRKN3Nan20FunctionCallbackInfoIN2v85ValueEEEE3$_0vEEvEEED2Ev
	movq	-40(%rbp), %rax         # 8-byte Reload
	addq	$48, %rsp
	popq	%rbp
	retq
.Ltmp321:
	.size	_ZNSt13__future_base22_S_make_deferred_stateISt12_Bind_simpleIFZ8mmap_mapRKN3Nan20FunctionCallbackInfoIN2v85ValueEEEE3$_0vEEEESt10shared_ptrINS_13_State_baseV2EEOT_, .Ltmp321-_ZNSt13__future_base22_S_make_deferred_stateISt12_Bind_simpleIFZ8mmap_mapRKN3Nan20FunctionCallbackInfoIN2v85ValueEEEE3$_0vEEEESt10shared_ptrINS_13_State_baseV2EEOT_
	.cfi_endproc

	.section	.text._ZNSt6futureIvEC2ERKSt10shared_ptrINSt13__future_base13_State_baseV2EE,"axG",@progbits,_ZNSt6futureIvEC2ERKSt10shared_ptrINSt13__future_base13_State_baseV2EE,comdat
	.weak	_ZNSt6futureIvEC2ERKSt10shared_ptrINSt13__future_base13_State_baseV2EE
	.align	16, 0x90
	.type	_ZNSt6futureIvEC2ERKSt10shared_ptrINSt13__future_base13_State_baseV2EE,@function
_ZNSt6futureIvEC2ERKSt10shared_ptrINSt13__future_base13_State_baseV2EE: # @_ZNSt6futureIvEC2ERKSt10shared_ptrINSt13__future_base13_State_baseV2EE
	.cfi_startproc
# BB#0:
	pushq	%rbp
.Ltmp322:
	.cfi_def_cfa_offset 16
.Ltmp323:
	.cfi_offset %rbp, -16
	movq	%rsp, %rbp
.Ltmp324:
	.cfi_def_cfa_register %rbp
	subq	$32, %rsp
	movq	%rdi, -8(%rbp)
	movq	%rsi, -16(%rbp)
	movq	-8(%rbp), %rsi
	movq	-16(%rbp), %rdi
	movq	%rdi, -24(%rbp)         # 8-byte Spill
	movq	%rsi, %rdi
	movq	-24(%rbp), %rsi         # 8-byte Reload
	callq	_ZNSt14__basic_futureIvEC2ERKSt10shared_ptrINSt13__future_base13_State_baseV2EE
	addq	$32, %rsp
	popq	%rbp
	retq
.Ltmp325:
	.size	_ZNSt6futureIvEC2ERKSt10shared_ptrINSt13__future_base13_State_baseV2EE, .Ltmp325-_ZNSt6futureIvEC2ERKSt10shared_ptrINSt13__future_base13_State_baseV2EE
	.cfi_endproc

	.section	.text._ZNSt14__basic_futureIvEC2ERKSt10shared_ptrINSt13__future_base13_State_baseV2EE,"axG",@progbits,_ZNSt14__basic_futureIvEC2ERKSt10shared_ptrINSt13__future_base13_State_baseV2EE,comdat
	.weak	_ZNSt14__basic_futureIvEC2ERKSt10shared_ptrINSt13__future_base13_State_baseV2EE
	.align	16, 0x90
	.type	_ZNSt14__basic_futureIvEC2ERKSt10shared_ptrINSt13__future_base13_State_baseV2EE,@function
_ZNSt14__basic_futureIvEC2ERKSt10shared_ptrINSt13__future_base13_State_baseV2EE: # @_ZNSt14__basic_futureIvEC2ERKSt10shared_ptrINSt13__future_base13_State_baseV2EE
	.cfi_startproc
	.cfi_personality 3, __gxx_personality_v0
.Leh_func_begin35:
	.cfi_lsda 3, .Lexception35
# BB#0:
	pushq	%rbp
.Ltmp331:
	.cfi_def_cfa_offset 16
.Ltmp332:
	.cfi_offset %rbp, -16
	movq	%rsp, %rbp
.Ltmp333:
	.cfi_def_cfa_register %rbp
	subq	$48, %rsp
	movq	%rdi, -8(%rbp)
	movq	%rsi, -16(%rbp)
	movq	-8(%rbp), %rdi
	movq	%rdi, %rax
	movq	%rdi, -40(%rbp)         # 8-byte Spill
	movq	%rax, -48(%rbp)         # 8-byte Spill
	callq	_ZNSt10shared_ptrINSt13__future_base13_State_baseV2EEC2ERKS2_
.Ltmp326:
	movq	-40(%rbp), %rdi         # 8-byte Reload
	callq	_ZNSt13__future_base13_State_baseV28_S_checkIS0_EEvRKSt10shared_ptrIT_E
.Ltmp327:
	jmp	.LBB35_1
.LBB35_1:
	movq	-48(%rbp), %rdi         # 8-byte Reload
	callq	_ZNKSt12__shared_ptrINSt13__future_base13_State_baseV2ELN9__gnu_cxx12_Lock_policyE2EEptEv
.Ltmp328:
	movq	%rax, %rdi
	callq	_ZNSt13__future_base13_State_baseV221_M_set_retrieved_flagEv
.Ltmp329:
	jmp	.LBB35_2
.LBB35_2:
	addq	$48, %rsp
	popq	%rbp
	retq
.LBB35_3:
.Ltmp330:
	movl	%edx, %ecx
	movq	%rax, -24(%rbp)
	movl	%ecx, -28(%rbp)
	movq	-40(%rbp), %rdi         # 8-byte Reload
	callq	_ZNSt10shared_ptrINSt13__future_base13_State_baseV2EED2Ev
# BB#4:
	movq	-24(%rbp), %rdi
	callq	_Unwind_Resume
.Ltmp334:
	.size	_ZNSt14__basic_futureIvEC2ERKSt10shared_ptrINSt13__future_base13_State_baseV2EE, .Ltmp334-_ZNSt14__basic_futureIvEC2ERKSt10shared_ptrINSt13__future_base13_State_baseV2EE
	.cfi_endproc
.Leh_func_end35:
	.section	.gcc_except_table,"a",@progbits
	.align	4
GCC_except_table35:
.Lexception35:
	.byte	255                     # @LPStart Encoding = omit
	.byte	3                       # @TType Encoding = udata4
	.asciz	"\234"                  # @TType base offset
	.byte	3                       # Call site Encoding = udata4
	.byte	26                      # Call site table length
	.long	.Ltmp326-.Leh_func_begin35 # >> Call Site 1 <<
	.long	.Ltmp329-.Ltmp326       #   Call between .Ltmp326 and .Ltmp329
	.long	.Ltmp330-.Leh_func_begin35 #     jumps to .Ltmp330
	.byte	0                       #   On action: cleanup
	.long	.Ltmp329-.Leh_func_begin35 # >> Call Site 2 <<
	.long	.Leh_func_end35-.Ltmp329 #   Call between .Ltmp329 and .Leh_func_end35
	.long	0                       #     has no landing pad
	.byte	0                       #   On action: cleanup
	.align	4

	.section	.text._ZNSt10shared_ptrINSt13__future_base13_State_baseV2EEC2ERKS2_,"axG",@progbits,_ZNSt10shared_ptrINSt13__future_base13_State_baseV2EEC2ERKS2_,comdat
	.weak	_ZNSt10shared_ptrINSt13__future_base13_State_baseV2EEC2ERKS2_
	.align	16, 0x90
	.type	_ZNSt10shared_ptrINSt13__future_base13_State_baseV2EEC2ERKS2_,@function
_ZNSt10shared_ptrINSt13__future_base13_State_baseV2EEC2ERKS2_: # @_ZNSt10shared_ptrINSt13__future_base13_State_baseV2EEC2ERKS2_
	.cfi_startproc
# BB#0:
	pushq	%rbp
.Ltmp335:
	.cfi_def_cfa_offset 16
.Ltmp336:
	.cfi_offset %rbp, -16
	movq	%rsp, %rbp
.Ltmp337:
	.cfi_def_cfa_register %rbp
	subq	$32, %rsp
	movq	%rdi, -8(%rbp)
	movq	%rsi, -16(%rbp)
	movq	-8(%rbp), %rsi
	movq	-16(%rbp), %rdi
	movq	%rdi, -24(%rbp)         # 8-byte Spill
	movq	%rsi, %rdi
	movq	-24(%rbp), %rsi         # 8-byte Reload
	callq	_ZNSt12__shared_ptrINSt13__future_base13_State_baseV2ELN9__gnu_cxx12_Lock_policyE2EEC2ERKS4_
	addq	$32, %rsp
	popq	%rbp
	retq
.Ltmp338:
	.size	_ZNSt10shared_ptrINSt13__future_base13_State_baseV2EEC2ERKS2_, .Ltmp338-_ZNSt10shared_ptrINSt13__future_base13_State_baseV2EEC2ERKS2_
	.cfi_endproc

	.section	.text._ZNSt13__future_base13_State_baseV28_S_checkIS0_EEvRKSt10shared_ptrIT_E,"axG",@progbits,_ZNSt13__future_base13_State_baseV28_S_checkIS0_EEvRKSt10shared_ptrIT_E,comdat
	.weak	_ZNSt13__future_base13_State_baseV28_S_checkIS0_EEvRKSt10shared_ptrIT_E
	.align	16, 0x90
	.type	_ZNSt13__future_base13_State_baseV28_S_checkIS0_EEvRKSt10shared_ptrIT_E,@function
_ZNSt13__future_base13_State_baseV28_S_checkIS0_EEvRKSt10shared_ptrIT_E: # @_ZNSt13__future_base13_State_baseV28_S_checkIS0_EEvRKSt10shared_ptrIT_E
	.cfi_startproc
# BB#0:
	pushq	%rbp
.Ltmp339:
	.cfi_def_cfa_offset 16
.Ltmp340:
	.cfi_offset %rbp, -16
	movq	%rsp, %rbp
.Ltmp341:
	.cfi_def_cfa_register %rbp
	subq	$16, %rsp
	movq	%rdi, -8(%rbp)
	movq	-8(%rbp), %rdi
	callq	_ZNKSt12__shared_ptrINSt13__future_base13_State_baseV2ELN9__gnu_cxx12_Lock_policyE2EEcvbEv
	testb	$1, %al
	jne	.LBB37_2
# BB#1:
	movl	$3, %edi
	callq	_ZSt20__throw_future_errori
.LBB37_2:
	addq	$16, %rsp
	popq	%rbp
	retq
.Ltmp342:
	.size	_ZNSt13__future_base13_State_baseV28_S_checkIS0_EEvRKSt10shared_ptrIT_E, .Ltmp342-_ZNSt13__future_base13_State_baseV28_S_checkIS0_EEvRKSt10shared_ptrIT_E
	.cfi_endproc

	.section	.text._ZNKSt12__shared_ptrINSt13__future_base13_State_baseV2ELN9__gnu_cxx12_Lock_policyE2EEptEv,"axG",@progbits,_ZNKSt12__shared_ptrINSt13__future_base13_State_baseV2ELN9__gnu_cxx12_Lock_policyE2EEptEv,comdat
	.weak	_ZNKSt12__shared_ptrINSt13__future_base13_State_baseV2ELN9__gnu_cxx12_Lock_policyE2EEptEv
	.align	16, 0x90
	.type	_ZNKSt12__shared_ptrINSt13__future_base13_State_baseV2ELN9__gnu_cxx12_Lock_policyE2EEptEv,@function
_ZNKSt12__shared_ptrINSt13__future_base13_State_baseV2ELN9__gnu_cxx12_Lock_policyE2EEptEv: # @_ZNKSt12__shared_ptrINSt13__future_base13_State_baseV2ELN9__gnu_cxx12_Lock_policyE2EEptEv
	.cfi_startproc
# BB#0:
	pushq	%rbp
.Ltmp343:
	.cfi_def_cfa_offset 16
.Ltmp344:
	.cfi_offset %rbp, -16
	movq	%rsp, %rbp
.Ltmp345:
	.cfi_def_cfa_register %rbp
	movq	%rdi, -8(%rbp)
	movq	-8(%rbp), %rdi
	movq	(%rdi), %rax
	popq	%rbp
	retq
.Ltmp346:
	.size	_ZNKSt12__shared_ptrINSt13__future_base13_State_baseV2ELN9__gnu_cxx12_Lock_policyE2EEptEv, .Ltmp346-_ZNKSt12__shared_ptrINSt13__future_base13_State_baseV2ELN9__gnu_cxx12_Lock_policyE2EEptEv
	.cfi_endproc

	.section	.text._ZNSt13__future_base13_State_baseV221_M_set_retrieved_flagEv,"axG",@progbits,_ZNSt13__future_base13_State_baseV221_M_set_retrieved_flagEv,comdat
	.weak	_ZNSt13__future_base13_State_baseV221_M_set_retrieved_flagEv
	.align	16, 0x90
	.type	_ZNSt13__future_base13_State_baseV221_M_set_retrieved_flagEv,@function
_ZNSt13__future_base13_State_baseV221_M_set_retrieved_flagEv: # @_ZNSt13__future_base13_State_baseV221_M_set_retrieved_flagEv
	.cfi_startproc
# BB#0:
	pushq	%rbp
.Ltmp347:
	.cfi_def_cfa_offset 16
.Ltmp348:
	.cfi_offset %rbp, -16
	movq	%rsp, %rbp
.Ltmp349:
	.cfi_def_cfa_register %rbp
	subq	$48, %rsp
	movq	%rdi, -24(%rbp)
	addq	$104, %rdi
	movq	%rdi, -8(%rbp)
	movl	$5, -12(%rbp)
	movq	-8(%rbp), %rdi
	movl	$4, %eax
	movl	%eax, %ecx
	xorl	%eax, %eax
	movb	%al, %dl
	testb	%dl, %dl
	movq	%rdi, -32(%rbp)         # 8-byte Spill
	movq	%rcx, -40(%rbp)         # 8-byte Spill
	jne	.LBB39_1
# BB#9:
	movq	-40(%rbp), %rax         # 8-byte Reload
	movq	.LJTI39_0(,%rax,8), %rcx
	jmpq	*%rcx
.LBB39_1:
	movb	$1, %al
	movq	-32(%rbp), %rcx         # 8-byte Reload
	xchgb	%al, (%rcx)
	movb	%al, -41(%rbp)          # 1-byte Spill
	jmp	.LBB39_6
.LBB39_2:
	movb	$1, %al
	movq	-32(%rbp), %rcx         # 8-byte Reload
	xchgb	%al, (%rcx)
	movb	%al, -41(%rbp)          # 1-byte Spill
	jmp	.LBB39_6
.LBB39_3:
	movb	$1, %al
	movq	-32(%rbp), %rcx         # 8-byte Reload
	xchgb	%al, (%rcx)
	movb	%al, -41(%rbp)          # 1-byte Spill
	jmp	.LBB39_6
.LBB39_4:
	movb	$1, %al
	movq	-32(%rbp), %rcx         # 8-byte Reload
	xchgb	%al, (%rcx)
	movb	%al, -41(%rbp)          # 1-byte Spill
	jmp	.LBB39_6
.LBB39_5:
	movb	$1, %al
	movq	-32(%rbp), %rcx         # 8-byte Reload
	xchgb	%al, (%rcx)
	movb	%al, -41(%rbp)          # 1-byte Spill
.LBB39_6:                               # %_ZNSt11atomic_flag12test_and_setESt12memory_order.exit
	movb	-41(%rbp), %al          # 1-byte Reload
	cmpb	$0, %al
	je	.LBB39_8
# BB#7:
	movl	$1, %edi
	callq	_ZSt20__throw_future_errori
.LBB39_8:
	addq	$48, %rsp
	popq	%rbp
	retq
.Ltmp350:
	.size	_ZNSt13__future_base13_State_baseV221_M_set_retrieved_flagEv, .Ltmp350-_ZNSt13__future_base13_State_baseV221_M_set_retrieved_flagEv
	.cfi_endproc
	.align	8, 0x90
.LJTI39_0:
	.quad	.LBB39_2
	.quad	.LBB39_2
	.quad	.LBB39_3
	.quad	.LBB39_4
	.quad	.LBB39_5

	.section	.text._ZNKSt12__shared_ptrINSt13__future_base13_State_baseV2ELN9__gnu_cxx12_Lock_policyE2EEcvbEv,"axG",@progbits,_ZNKSt12__shared_ptrINSt13__future_base13_State_baseV2ELN9__gnu_cxx12_Lock_policyE2EEcvbEv,comdat
	.weak	_ZNKSt12__shared_ptrINSt13__future_base13_State_baseV2ELN9__gnu_cxx12_Lock_policyE2EEcvbEv
	.align	16, 0x90
	.type	_ZNKSt12__shared_ptrINSt13__future_base13_State_baseV2ELN9__gnu_cxx12_Lock_policyE2EEcvbEv,@function
_ZNKSt12__shared_ptrINSt13__future_base13_State_baseV2ELN9__gnu_cxx12_Lock_policyE2EEcvbEv: # @_ZNKSt12__shared_ptrINSt13__future_base13_State_baseV2ELN9__gnu_cxx12_Lock_policyE2EEcvbEv
	.cfi_startproc
# BB#0:
	pushq	%rbp
.Ltmp351:
	.cfi_def_cfa_offset 16
.Ltmp352:
	.cfi_offset %rbp, -16
	movq	%rsp, %rbp
.Ltmp353:
	.cfi_def_cfa_register %rbp
	movq	%rdi, -8(%rbp)
	movq	(%rdi), %rdi
	testq	%rdi, %rdi
	setne	%al
	andb	$1, %al
	movzbl	%al, %eax
	popq	%rbp
	retq
.Ltmp354:
	.size	_ZNKSt12__shared_ptrINSt13__future_base13_State_baseV2ELN9__gnu_cxx12_Lock_policyE2EEcvbEv, .Ltmp354-_ZNKSt12__shared_ptrINSt13__future_base13_State_baseV2ELN9__gnu_cxx12_Lock_policyE2EEcvbEv
	.cfi_endproc

	.section	.text._ZNSt12__shared_ptrINSt13__future_base13_State_baseV2ELN9__gnu_cxx12_Lock_policyE2EEC2ERKS4_,"axG",@progbits,_ZNSt12__shared_ptrINSt13__future_base13_State_baseV2ELN9__gnu_cxx12_Lock_policyE2EEC2ERKS4_,comdat
	.weak	_ZNSt12__shared_ptrINSt13__future_base13_State_baseV2ELN9__gnu_cxx12_Lock_policyE2EEC2ERKS4_
	.align	16, 0x90
	.type	_ZNSt12__shared_ptrINSt13__future_base13_State_baseV2ELN9__gnu_cxx12_Lock_policyE2EEC2ERKS4_,@function
_ZNSt12__shared_ptrINSt13__future_base13_State_baseV2ELN9__gnu_cxx12_Lock_policyE2EEC2ERKS4_: # @_ZNSt12__shared_ptrINSt13__future_base13_State_baseV2ELN9__gnu_cxx12_Lock_policyE2EEC2ERKS4_
	.cfi_startproc
# BB#0:
	pushq	%rbp
.Ltmp355:
	.cfi_def_cfa_offset 16
.Ltmp356:
	.cfi_offset %rbp, -16
	movq	%rsp, %rbp
.Ltmp357:
	.cfi_def_cfa_register %rbp
	subq	$32, %rsp
	movq	%rdi, -8(%rbp)
	movq	%rsi, -16(%rbp)
	movq	-8(%rbp), %rsi
	movq	-16(%rbp), %rdi
	movq	(%rdi), %rdi
	movq	%rdi, (%rsi)
	movq	%rsi, %rdi
	addq	$8, %rdi
	movq	-16(%rbp), %rax
	addq	$8, %rax
	movq	%rsi, -24(%rbp)         # 8-byte Spill
	movq	%rax, %rsi
	callq	_ZNSt14__shared_countILN9__gnu_cxx12_Lock_policyE2EEC2ERKS2_
	movq	-16(%rbp), %rax
	movq	(%rax), %rax
	movq	-24(%rbp), %rsi         # 8-byte Reload
	movq	%rax, (%rsi)
	addq	$32, %rsp
	popq	%rbp
	retq
.Ltmp358:
	.size	_ZNSt12__shared_ptrINSt13__future_base13_State_baseV2ELN9__gnu_cxx12_Lock_policyE2EEC2ERKS4_, .Ltmp358-_ZNSt12__shared_ptrINSt13__future_base13_State_baseV2ELN9__gnu_cxx12_Lock_policyE2EEC2ERKS4_
	.cfi_endproc

	.section	.text._ZNSt14__shared_countILN9__gnu_cxx12_Lock_policyE2EEC2ERKS2_,"axG",@progbits,_ZNSt14__shared_countILN9__gnu_cxx12_Lock_policyE2EEC2ERKS2_,comdat
	.weak	_ZNSt14__shared_countILN9__gnu_cxx12_Lock_policyE2EEC2ERKS2_
	.align	16, 0x90
	.type	_ZNSt14__shared_countILN9__gnu_cxx12_Lock_policyE2EEC2ERKS2_,@function
_ZNSt14__shared_countILN9__gnu_cxx12_Lock_policyE2EEC2ERKS2_: # @_ZNSt14__shared_countILN9__gnu_cxx12_Lock_policyE2EEC2ERKS2_
	.cfi_startproc
	.cfi_personality 3, __gxx_personality_v0
.Leh_func_begin42:
	.cfi_lsda 3, .Lexception42
# BB#0:
	pushq	%rbp
.Ltmp362:
	.cfi_def_cfa_offset 16
.Ltmp363:
	.cfi_offset %rbp, -16
	movq	%rsp, %rbp
.Ltmp364:
	.cfi_def_cfa_register %rbp
	subq	$32, %rsp
	movq	%rdi, -8(%rbp)
	movq	%rsi, -16(%rbp)
	movq	-8(%rbp), %rsi
	movq	-16(%rbp), %rdi
	movq	(%rdi), %rdi
	movq	%rdi, (%rsi)
	cmpq	$0, (%rsi)
	movq	%rsi, -24(%rbp)         # 8-byte Spill
	je	.LBB42_3
# BB#1:
	movq	-24(%rbp), %rax         # 8-byte Reload
	movq	(%rax), %rdi
.Ltmp359:
	callq	_ZNSt16_Sp_counted_baseILN9__gnu_cxx12_Lock_policyE2EE15_M_add_ref_copyEv
.Ltmp360:
	jmp	.LBB42_2
.LBB42_2:
	jmp	.LBB42_3
.LBB42_3:
	addq	$32, %rsp
	popq	%rbp
	retq
.LBB42_4:
.Ltmp361:
	movl	%edx, %ecx
	movq	%rax, %rdi
	movl	%ecx, -28(%rbp)         # 4-byte Spill
	callq	__clang_call_terminate
.Ltmp365:
	.size	_ZNSt14__shared_countILN9__gnu_cxx12_Lock_policyE2EEC2ERKS2_, .Ltmp365-_ZNSt14__shared_countILN9__gnu_cxx12_Lock_policyE2EEC2ERKS2_
	.cfi_endproc
.Leh_func_end42:
	.section	.gcc_except_table,"a",@progbits
	.align	4
GCC_except_table42:
.Lexception42:
	.byte	255                     # @LPStart Encoding = omit
	.byte	3                       # @TType Encoding = udata4
	.byte	21                      # @TType base offset
	.byte	3                       # Call site Encoding = udata4
	.byte	13                      # Call site table length
	.long	.Ltmp359-.Leh_func_begin42 # >> Call Site 1 <<
	.long	.Ltmp360-.Ltmp359       #   Call between .Ltmp359 and .Ltmp360
	.long	.Ltmp361-.Leh_func_begin42 #     jumps to .Ltmp361
	.byte	1                       #   On action: 1
	.byte	1                       # >> Action Record 1 <<
                                        #   Catch TypeInfo 1
	.byte	0                       #   No further actions
                                        # >> Catch TypeInfos <<
	.long	0                       # TypeInfo 1
	.align	4

	.section	.text._ZNSt16_Sp_counted_baseILN9__gnu_cxx12_Lock_policyE2EE15_M_add_ref_copyEv,"axG",@progbits,_ZNSt16_Sp_counted_baseILN9__gnu_cxx12_Lock_policyE2EE15_M_add_ref_copyEv,comdat
	.weak	_ZNSt16_Sp_counted_baseILN9__gnu_cxx12_Lock_policyE2EE15_M_add_ref_copyEv
	.align	16, 0x90
	.type	_ZNSt16_Sp_counted_baseILN9__gnu_cxx12_Lock_policyE2EE15_M_add_ref_copyEv,@function
_ZNSt16_Sp_counted_baseILN9__gnu_cxx12_Lock_policyE2EE15_M_add_ref_copyEv: # @_ZNSt16_Sp_counted_baseILN9__gnu_cxx12_Lock_policyE2EE15_M_add_ref_copyEv
	.cfi_startproc
# BB#0:
	pushq	%rbp
.Ltmp366:
	.cfi_def_cfa_offset 16
.Ltmp367:
	.cfi_offset %rbp, -16
	movq	%rsp, %rbp
.Ltmp368:
	.cfi_def_cfa_register %rbp
	subq	$16, %rsp
	movl	$1, %esi
	movq	%rdi, -8(%rbp)
	movq	-8(%rbp), %rdi
	addq	$8, %rdi
	callq	_ZN9__gnu_cxxL21__atomic_add_dispatchEPii
	addq	$16, %rsp
	popq	%rbp
	retq
.Ltmp369:
	.size	_ZNSt16_Sp_counted_baseILN9__gnu_cxx12_Lock_policyE2EE15_M_add_ref_copyEv, .Ltmp369-_ZNSt16_Sp_counted_baseILN9__gnu_cxx12_Lock_policyE2EE15_M_add_ref_copyEv
	.cfi_endproc

	.section	.text.__clang_call_terminate,"axG",@progbits,__clang_call_terminate,comdat
	.hidden	__clang_call_terminate
	.weak	__clang_call_terminate
	.align	16, 0x90
	.type	__clang_call_terminate,@function
__clang_call_terminate:                 # @__clang_call_terminate
# BB#0:
	pushq	%rbp
	movq	%rsp, %rbp
	subq	$16, %rsp
	callq	__cxa_begin_catch
	movq	%rax, -8(%rbp)          # 8-byte Spill
	callq	_ZSt9terminatev
.Ltmp370:
	.size	__clang_call_terminate, .Ltmp370-__clang_call_terminate

	.text
	.align	16, 0x90
	.type	_ZN9__gnu_cxxL21__atomic_add_dispatchEPii,@function
_ZN9__gnu_cxxL21__atomic_add_dispatchEPii: # @_ZN9__gnu_cxxL21__atomic_add_dispatchEPii
	.cfi_startproc
# BB#0:
	pushq	%rbp
.Ltmp371:
	.cfi_def_cfa_offset 16
.Ltmp372:
	.cfi_offset %rbp, -16
	movq	%rsp, %rbp
.Ltmp373:
	.cfi_def_cfa_register %rbp
	subq	$16, %rsp
	movq	%rdi, -8(%rbp)
	movl	%esi, -12(%rbp)
	callq	_ZL18__gthread_active_pv
	cmpl	$0, %eax
	je	.LBB45_2
# BB#1:
	movq	-8(%rbp), %rdi
	movl	-12(%rbp), %esi
	callq	_ZN9__gnu_cxxL12__atomic_addEPVii
	jmp	.LBB45_3
.LBB45_2:
	movq	-8(%rbp), %rdi
	movl	-12(%rbp), %esi
	callq	_ZN9__gnu_cxxL19__atomic_add_singleEPii
.LBB45_3:
	addq	$16, %rsp
	popq	%rbp
	retq
.Ltmp374:
	.size	_ZN9__gnu_cxxL21__atomic_add_dispatchEPii, .Ltmp374-_ZN9__gnu_cxxL21__atomic_add_dispatchEPii
	.cfi_endproc

	.align	16, 0x90
	.type	_ZL18__gthread_active_pv,@function
_ZL18__gthread_active_pv:               # @_ZL18__gthread_active_pv
	.cfi_startproc
# BB#0:
	pushq	%rbp
.Ltmp375:
	.cfi_def_cfa_offset 16
.Ltmp376:
	.cfi_offset %rbp, -16
	movq	%rsp, %rbp
.Ltmp377:
	.cfi_def_cfa_register %rbp
	cmpq	$0, _ZZL18__gthread_active_pvE20__gthread_active_ptr
	setne	%al
	andb	$1, %al
	movzbl	%al, %eax
	popq	%rbp
	retq
.Ltmp378:
	.size	_ZL18__gthread_active_pv, .Ltmp378-_ZL18__gthread_active_pv
	.cfi_endproc

	.align	16, 0x90
	.type	_ZN9__gnu_cxxL12__atomic_addEPVii,@function
_ZN9__gnu_cxxL12__atomic_addEPVii:      # @_ZN9__gnu_cxxL12__atomic_addEPVii
	.cfi_startproc
# BB#0:
	pushq	%rbp
.Ltmp379:
	.cfi_def_cfa_offset 16
.Ltmp380:
	.cfi_offset %rbp, -16
	movq	%rsp, %rbp
.Ltmp381:
	.cfi_def_cfa_register %rbp
	movq	%rdi, -8(%rbp)
	movl	%esi, -12(%rbp)
	movq	-8(%rbp), %rdi
	movl	%esi, -16(%rbp)
	lock
	xaddl	%esi, (%rdi)
	movl	%esi, -20(%rbp)
	popq	%rbp
	retq
.Ltmp382:
	.size	_ZN9__gnu_cxxL12__atomic_addEPVii, .Ltmp382-_ZN9__gnu_cxxL12__atomic_addEPVii
	.cfi_endproc

	.align	16, 0x90
	.type	_ZN9__gnu_cxxL19__atomic_add_singleEPii,@function
_ZN9__gnu_cxxL19__atomic_add_singleEPii: # @_ZN9__gnu_cxxL19__atomic_add_singleEPii
	.cfi_startproc
# BB#0:
	pushq	%rbp
.Ltmp383:
	.cfi_def_cfa_offset 16
.Ltmp384:
	.cfi_offset %rbp, -16
	movq	%rsp, %rbp
.Ltmp385:
	.cfi_def_cfa_register %rbp
	movq	%rdi, -8(%rbp)
	movl	%esi, -12(%rbp)
	movl	-12(%rbp), %esi
	movq	-8(%rbp), %rdi
	addl	(%rdi), %esi
	movl	%esi, (%rdi)
	popq	%rbp
	retq
.Ltmp386:
	.size	_ZN9__gnu_cxxL19__atomic_add_singleEPii, .Ltmp386-_ZN9__gnu_cxxL19__atomic_add_singleEPii
	.cfi_endproc

	.align	16, 0x90
	.type	_ZSt11make_sharedINSt13__future_base15_Deferred_stateISt12_Bind_simpleIFZ8mmap_mapRKN3Nan20FunctionCallbackInfoIN2v85ValueEEEE3$_0vEEvEEJSC_EESt10shared_ptrIT_EDpOT0_,@function
_ZSt11make_sharedINSt13__future_base15_Deferred_stateISt12_Bind_simpleIFZ8mmap_mapRKN3Nan20FunctionCallbackInfoIN2v85ValueEEEE3$_0vEEvEEJSC_EESt10shared_ptrIT_EDpOT0_: # @"_ZSt11make_sharedINSt13__future_base15_Deferred_stateISt12_Bind_simpleIFZ8mmap_mapRKN3Nan20FunctionCallbackInfoIN2v85ValueEEEE3$_0vEEvEEJSC_EESt10shared_ptrIT_EDpOT0_"
	.cfi_startproc
	.cfi_personality 3, __gxx_personality_v0
.Leh_func_begin49:
	.cfi_lsda 3, .Lexception49
# BB#0:
	pushq	%rbp
.Ltmp390:
	.cfi_def_cfa_offset 16
.Ltmp391:
	.cfi_offset %rbp, -16
	movq	%rsp, %rbp
.Ltmp392:
	.cfi_def_cfa_register %rbp
	subq	$64, %rsp
	movq	%rdi, %rax
	movq	%rsi, -8(%rbp)
	leaq	-16(%rbp), %rsi
	movq	%rdi, -40(%rbp)         # 8-byte Spill
	movq	%rsi, %rdi
	movq	%rax, -48(%rbp)         # 8-byte Spill
	movq	%rsi, -56(%rbp)         # 8-byte Spill
	callq	_ZNSaINSt13__future_base15_Deferred_stateISt12_Bind_simpleIFZ8mmap_mapRKN3Nan20FunctionCallbackInfoIN2v85ValueEEEE3$_0vEEvEEEC2Ev
	movq	-8(%rbp), %rdi
	callq	_ZSt7forwardISt12_Bind_simpleIFZ8mmap_mapRKN3Nan20FunctionCallbackInfoIN2v85ValueEEEE3$_0vEEEOT_RNSt16remove_referenceISB_E4typeE
.Ltmp387:
	movq	-40(%rbp), %rdi         # 8-byte Reload
	movq	-56(%rbp), %rsi         # 8-byte Reload
	movq	%rax, %rdx
	callq	_ZSt15allocate_sharedINSt13__future_base15_Deferred_stateISt12_Bind_simpleIFZ8mmap_mapRKN3Nan20FunctionCallbackInfoIN2v85ValueEEEE3$_0vEEvEESaISD_EJSC_EESt10shared_ptrIT_ERKT0_DpOT1_
.Ltmp388:
	jmp	.LBB49_1
.LBB49_1:
	leaq	-16(%rbp), %rdi
	callq	_ZNSaINSt13__future_base15_Deferred_stateISt12_Bind_simpleIFZ8mmap_mapRKN3Nan20FunctionCallbackInfoIN2v85ValueEEEE3$_0vEEvEEED2Ev
	movq	-48(%rbp), %rax         # 8-byte Reload
	addq	$64, %rsp
	popq	%rbp
	retq
.LBB49_2:
.Ltmp389:
	leaq	-16(%rbp), %rdi
	movl	%edx, %ecx
	movq	%rax, -24(%rbp)
	movl	%ecx, -28(%rbp)
	callq	_ZNSaINSt13__future_base15_Deferred_stateISt12_Bind_simpleIFZ8mmap_mapRKN3Nan20FunctionCallbackInfoIN2v85ValueEEEE3$_0vEEvEEED2Ev
# BB#3:
	movq	-24(%rbp), %rdi
	callq	_Unwind_Resume
.Ltmp393:
	.size	_ZSt11make_sharedINSt13__future_base15_Deferred_stateISt12_Bind_simpleIFZ8mmap_mapRKN3Nan20FunctionCallbackInfoIN2v85ValueEEEE3$_0vEEvEEJSC_EESt10shared_ptrIT_EDpOT0_, .Ltmp393-_ZSt11make_sharedINSt13__future_base15_Deferred_stateISt12_Bind_simpleIFZ8mmap_mapRKN3Nan20FunctionCallbackInfoIN2v85ValueEEEE3$_0vEEvEEJSC_EESt10shared_ptrIT_EDpOT0_
	.cfi_endproc
.Leh_func_end49:
	.section	.gcc_except_table,"a",@progbits
	.align	4
GCC_except_table49:
.Lexception49:
	.byte	255                     # @LPStart Encoding = omit
	.byte	3                       # @TType Encoding = udata4
	.asciz	"\234"                  # @TType base offset
	.byte	3                       # Call site Encoding = udata4
	.byte	26                      # Call site table length
	.long	.Ltmp387-.Leh_func_begin49 # >> Call Site 1 <<
	.long	.Ltmp388-.Ltmp387       #   Call between .Ltmp387 and .Ltmp388
	.long	.Ltmp389-.Leh_func_begin49 #     jumps to .Ltmp389
	.byte	0                       #   On action: cleanup
	.long	.Ltmp388-.Leh_func_begin49 # >> Call Site 2 <<
	.long	.Leh_func_end49-.Ltmp388 #   Call between .Ltmp388 and .Leh_func_end49
	.long	0                       #     has no landing pad
	.byte	0                       #   On action: cleanup
	.align	4

	.text
	.align	16, 0x90
	.type	_ZSt4moveIRSt12_Bind_simpleIFZ8mmap_mapRKN3Nan20FunctionCallbackInfoIN2v85ValueEEEE3$_0vEEEONSt16remove_referenceIT_E4typeEOSD_,@function
_ZSt4moveIRSt12_Bind_simpleIFZ8mmap_mapRKN3Nan20FunctionCallbackInfoIN2v85ValueEEEE3$_0vEEEONSt16remove_referenceIT_E4typeEOSD_: # @"_ZSt4moveIRSt12_Bind_simpleIFZ8mmap_mapRKN3Nan20FunctionCallbackInfoIN2v85ValueEEEE3$_0vEEEONSt16remove_referenceIT_E4typeEOSD_"
	.cfi_startproc
# BB#0:
	pushq	%rbp
.Ltmp394:
	.cfi_def_cfa_offset 16
.Ltmp395:
	.cfi_offset %rbp, -16
	movq	%rsp, %rbp
.Ltmp396:
	.cfi_def_cfa_register %rbp
	movq	%rdi, -8(%rbp)
	movq	-8(%rbp), %rax
	popq	%rbp
	retq
.Ltmp397:
	.size	_ZSt4moveIRSt12_Bind_simpleIFZ8mmap_mapRKN3Nan20FunctionCallbackInfoIN2v85ValueEEEE3$_0vEEEONSt16remove_referenceIT_E4typeEOSD_, .Ltmp397-_ZSt4moveIRSt12_Bind_simpleIFZ8mmap_mapRKN3Nan20FunctionCallbackInfoIN2v85ValueEEEE3$_0vEEEONSt16remove_referenceIT_E4typeEOSD_
	.cfi_endproc

	.align	16, 0x90
	.type	_ZNSt10shared_ptrINSt13__future_base13_State_baseV2EEC2INS0_15_Deferred_stateISt12_Bind_simpleIFZ8mmap_mapRKN3Nan20FunctionCallbackInfoIN2v85ValueEEEE3$_0vEEvEEvEEOS_IT_E,@function
_ZNSt10shared_ptrINSt13__future_base13_State_baseV2EEC2INS0_15_Deferred_stateISt12_Bind_simpleIFZ8mmap_mapRKN3Nan20FunctionCallbackInfoIN2v85ValueEEEE3$_0vEEvEEvEEOS_IT_E: # @"_ZNSt10shared_ptrINSt13__future_base13_State_baseV2EEC2INS0_15_Deferred_stateISt12_Bind_simpleIFZ8mmap_mapRKN3Nan20FunctionCallbackInfoIN2v85ValueEEEE3$_0vEEvEEvEEOS_IT_E"
	.cfi_startproc
# BB#0:
	pushq	%rbp
.Ltmp398:
	.cfi_def_cfa_offset 16
.Ltmp399:
	.cfi_offset %rbp, -16
	movq	%rsp, %rbp
.Ltmp400:
	.cfi_def_cfa_register %rbp
	subq	$32, %rsp
	movq	%rdi, -8(%rbp)
	movq	%rsi, -16(%rbp)
	movq	-8(%rbp), %rsi
	movq	-16(%rbp), %rdi
	movq	%rsi, -24(%rbp)         # 8-byte Spill
	callq	_ZSt4moveIRSt10shared_ptrINSt13__future_base15_Deferred_stateISt12_Bind_simpleIFZ8mmap_mapRKN3Nan20FunctionCallbackInfoIN2v85ValueEEEE3$_0vEEvEEEEONSt16remove_referenceIT_E4typeEOSI_
	movq	-24(%rbp), %rdi         # 8-byte Reload
	movq	%rax, %rsi
	callq	_ZNSt12__shared_ptrINSt13__future_base13_State_baseV2ELN9__gnu_cxx12_Lock_policyE2EEC2INS0_15_Deferred_stateISt12_Bind_simpleIFZ8mmap_mapRKN3Nan20FunctionCallbackInfoIN2v85ValueEEEE3$_0vEEvEEvEEOS_IT_LS3_2EE
	addq	$32, %rsp
	popq	%rbp
	retq
.Ltmp401:
	.size	_ZNSt10shared_ptrINSt13__future_base13_State_baseV2EEC2INS0_15_Deferred_stateISt12_Bind_simpleIFZ8mmap_mapRKN3Nan20FunctionCallbackInfoIN2v85ValueEEEE3$_0vEEvEEvEEOS_IT_E, .Ltmp401-_ZNSt10shared_ptrINSt13__future_base13_State_baseV2EEC2INS0_15_Deferred_stateISt12_Bind_simpleIFZ8mmap_mapRKN3Nan20FunctionCallbackInfoIN2v85ValueEEEE3$_0vEEvEEvEEOS_IT_E
	.cfi_endproc

	.align	16, 0x90
	.type	_ZNSt10shared_ptrINSt13__future_base15_Deferred_stateISt12_Bind_simpleIFZ8mmap_mapRKN3Nan20FunctionCallbackInfoIN2v85ValueEEEE3$_0vEEvEEED2Ev,@function
_ZNSt10shared_ptrINSt13__future_base15_Deferred_stateISt12_Bind_simpleIFZ8mmap_mapRKN3Nan20FunctionCallbackInfoIN2v85ValueEEEE3$_0vEEvEEED2Ev: # @"_ZNSt10shared_ptrINSt13__future_base15_Deferred_stateISt12_Bind_simpleIFZ8mmap_mapRKN3Nan20FunctionCallbackInfoIN2v85ValueEEEE3$_0vEEvEEED2Ev"
	.cfi_startproc
# BB#0:
	pushq	%rbp
.Ltmp402:
	.cfi_def_cfa_offset 16
.Ltmp403:
	.cfi_offset %rbp, -16
	movq	%rsp, %rbp
.Ltmp404:
	.cfi_def_cfa_register %rbp
	subq	$16, %rsp
	movq	%rdi, -8(%rbp)
	movq	-8(%rbp), %rdi
	callq	_ZNSt12__shared_ptrINSt13__future_base15_Deferred_stateISt12_Bind_simpleIFZ8mmap_mapRKN3Nan20FunctionCallbackInfoIN2v85ValueEEEE3$_0vEEvEELN9__gnu_cxx12_Lock_policyE2EED2Ev
	addq	$16, %rsp
	popq	%rbp
	retq
.Ltmp405:
	.size	_ZNSt10shared_ptrINSt13__future_base15_Deferred_stateISt12_Bind_simpleIFZ8mmap_mapRKN3Nan20FunctionCallbackInfoIN2v85ValueEEEE3$_0vEEvEEED2Ev, .Ltmp405-_ZNSt10shared_ptrINSt13__future_base15_Deferred_stateISt12_Bind_simpleIFZ8mmap_mapRKN3Nan20FunctionCallbackInfoIN2v85ValueEEEE3$_0vEEvEEED2Ev
	.cfi_endproc

	.align	16, 0x90
	.type	_ZNSt12__shared_ptrINSt13__future_base15_Deferred_stateISt12_Bind_simpleIFZ8mmap_mapRKN3Nan20FunctionCallbackInfoIN2v85ValueEEEE3$_0vEEvEELN9__gnu_cxx12_Lock_policyE2EED2Ev,@function
_ZNSt12__shared_ptrINSt13__future_base15_Deferred_stateISt12_Bind_simpleIFZ8mmap_mapRKN3Nan20FunctionCallbackInfoIN2v85ValueEEEE3$_0vEEvEELN9__gnu_cxx12_Lock_policyE2EED2Ev: # @"_ZNSt12__shared_ptrINSt13__future_base15_Deferred_stateISt12_Bind_simpleIFZ8mmap_mapRKN3Nan20FunctionCallbackInfoIN2v85ValueEEEE3$_0vEEvEELN9__gnu_cxx12_Lock_policyE2EED2Ev"
	.cfi_startproc
# BB#0:
	pushq	%rbp
.Ltmp406:
	.cfi_def_cfa_offset 16
.Ltmp407:
	.cfi_offset %rbp, -16
	movq	%rsp, %rbp
.Ltmp408:
	.cfi_def_cfa_register %rbp
	subq	$16, %rsp
	movq	%rdi, -8(%rbp)
	movq	-8(%rbp), %rdi
	addq	$8, %rdi
	callq	_ZNSt14__shared_countILN9__gnu_cxx12_Lock_policyE2EED2Ev
	addq	$16, %rsp
	popq	%rbp
	retq
.Ltmp409:
	.size	_ZNSt12__shared_ptrINSt13__future_base15_Deferred_stateISt12_Bind_simpleIFZ8mmap_mapRKN3Nan20FunctionCallbackInfoIN2v85ValueEEEE3$_0vEEvEELN9__gnu_cxx12_Lock_policyE2EED2Ev, .Ltmp409-_ZNSt12__shared_ptrINSt13__future_base15_Deferred_stateISt12_Bind_simpleIFZ8mmap_mapRKN3Nan20FunctionCallbackInfoIN2v85ValueEEEE3$_0vEEvEELN9__gnu_cxx12_Lock_policyE2EED2Ev
	.cfi_endproc

	.section	.text._ZNSt14__shared_countILN9__gnu_cxx12_Lock_policyE2EED2Ev,"axG",@progbits,_ZNSt14__shared_countILN9__gnu_cxx12_Lock_policyE2EED2Ev,comdat
	.weak	_ZNSt14__shared_countILN9__gnu_cxx12_Lock_policyE2EED2Ev
	.align	16, 0x90
	.type	_ZNSt14__shared_countILN9__gnu_cxx12_Lock_policyE2EED2Ev,@function
_ZNSt14__shared_countILN9__gnu_cxx12_Lock_policyE2EED2Ev: # @_ZNSt14__shared_countILN9__gnu_cxx12_Lock_policyE2EED2Ev
	.cfi_startproc
# BB#0:
	pushq	%rbp
.Ltmp410:
	.cfi_def_cfa_offset 16
.Ltmp411:
	.cfi_offset %rbp, -16
	movq	%rsp, %rbp
.Ltmp412:
	.cfi_def_cfa_register %rbp
	subq	$16, %rsp
	movq	%rdi, -8(%rbp)
	movq	-8(%rbp), %rdi
	cmpq	$0, (%rdi)
	movq	%rdi, -16(%rbp)         # 8-byte Spill
	je	.LBB54_2
# BB#1:
	movq	-16(%rbp), %rax         # 8-byte Reload
	movq	(%rax), %rdi
	callq	_ZNSt16_Sp_counted_baseILN9__gnu_cxx12_Lock_policyE2EE10_M_releaseEv
.LBB54_2:
	addq	$16, %rsp
	popq	%rbp
	retq
.Ltmp413:
	.size	_ZNSt14__shared_countILN9__gnu_cxx12_Lock_policyE2EED2Ev, .Ltmp413-_ZNSt14__shared_countILN9__gnu_cxx12_Lock_policyE2EED2Ev
	.cfi_endproc

	.section	.text._ZNSt16_Sp_counted_baseILN9__gnu_cxx12_Lock_policyE2EE10_M_releaseEv,"axG",@progbits,_ZNSt16_Sp_counted_baseILN9__gnu_cxx12_Lock_policyE2EE10_M_releaseEv,comdat
	.weak	_ZNSt16_Sp_counted_baseILN9__gnu_cxx12_Lock_policyE2EE10_M_releaseEv
	.align	16, 0x90
	.type	_ZNSt16_Sp_counted_baseILN9__gnu_cxx12_Lock_policyE2EE10_M_releaseEv,@function
_ZNSt16_Sp_counted_baseILN9__gnu_cxx12_Lock_policyE2EE10_M_releaseEv: # @_ZNSt16_Sp_counted_baseILN9__gnu_cxx12_Lock_policyE2EE10_M_releaseEv
	.cfi_startproc
	.cfi_personality 3, __gxx_personality_v0
.Leh_func_begin55:
	.cfi_lsda 3, .Lexception55
# BB#0:
	pushq	%rbp
.Ltmp419:
	.cfi_def_cfa_offset 16
.Ltmp420:
	.cfi_offset %rbp, -16
	movq	%rsp, %rbp
.Ltmp421:
	.cfi_def_cfa_register %rbp
	subq	$32, %rsp
	movq	%rdi, -8(%rbp)
	movq	%rdi, %rax
	addq	$8, %rdi
.Ltmp414:
	movl	$-1, %esi
	movq	%rax, -16(%rbp)         # 8-byte Spill
	callq	_ZN9__gnu_cxxL27__exchange_and_add_dispatchEPii
.Ltmp415:
	movl	%eax, -20(%rbp)         # 4-byte Spill
	jmp	.LBB55_1
.LBB55_1:
	movl	-20(%rbp), %eax         # 4-byte Reload
	cmpl	$1, %eax
	jne	.LBB55_6
# BB#2:
	movq	-16(%rbp), %rax         # 8-byte Reload
	movq	(%rax), %rcx
	movq	16(%rcx), %rcx
	movq	%rax, %rdi
	callq	*%rcx
	movq	-16(%rbp), %rax         # 8-byte Reload
	addq	$12, %rax
.Ltmp416:
	movl	$-1, %esi
	movq	%rax, %rdi
	callq	_ZN9__gnu_cxxL27__exchange_and_add_dispatchEPii
.Ltmp417:
	movl	%eax, -24(%rbp)         # 4-byte Spill
	jmp	.LBB55_3
.LBB55_3:
	movl	-24(%rbp), %eax         # 4-byte Reload
	cmpl	$1, %eax
	jne	.LBB55_5
# BB#4:
	movq	-16(%rbp), %rax         # 8-byte Reload
	movq	(%rax), %rcx
	movq	%rax, %rdi
	callq	*24(%rcx)
.LBB55_5:
	jmp	.LBB55_6
.LBB55_6:
	addq	$32, %rsp
	popq	%rbp
	retq
.LBB55_7:
.Ltmp418:
	movl	%edx, %ecx
	movq	%rax, %rdi
	movl	%ecx, -28(%rbp)         # 4-byte Spill
	callq	__clang_call_terminate
.Ltmp422:
	.size	_ZNSt16_Sp_counted_baseILN9__gnu_cxx12_Lock_policyE2EE10_M_releaseEv, .Ltmp422-_ZNSt16_Sp_counted_baseILN9__gnu_cxx12_Lock_policyE2EE10_M_releaseEv
	.cfi_endproc
.Leh_func_end55:
	.section	.gcc_except_table,"a",@progbits
	.align	4
GCC_except_table55:
.Lexception55:
	.byte	255                     # @LPStart Encoding = omit
	.byte	3                       # @TType Encoding = udata4
	.asciz	"\274"                  # @TType base offset
	.byte	3                       # Call site Encoding = udata4
	.byte	52                      # Call site table length
	.long	.Ltmp414-.Leh_func_begin55 # >> Call Site 1 <<
	.long	.Ltmp415-.Ltmp414       #   Call between .Ltmp414 and .Ltmp415
	.long	.Ltmp418-.Leh_func_begin55 #     jumps to .Ltmp418
	.byte	1                       #   On action: 1
	.long	.Ltmp415-.Leh_func_begin55 # >> Call Site 2 <<
	.long	.Ltmp416-.Ltmp415       #   Call between .Ltmp415 and .Ltmp416
	.long	0                       #     has no landing pad
	.byte	0                       #   On action: cleanup
	.long	.Ltmp416-.Leh_func_begin55 # >> Call Site 3 <<
	.long	.Ltmp417-.Ltmp416       #   Call between .Ltmp416 and .Ltmp417
	.long	.Ltmp418-.Leh_func_begin55 #     jumps to .Ltmp418
	.byte	1                       #   On action: 1
	.long	.Ltmp417-.Leh_func_begin55 # >> Call Site 4 <<
	.long	.Leh_func_end55-.Ltmp417 #   Call between .Ltmp417 and .Leh_func_end55
	.long	0                       #     has no landing pad
	.byte	0                       #   On action: cleanup
	.byte	1                       # >> Action Record 1 <<
                                        #   Catch TypeInfo 1
	.byte	0                       #   No further actions
                                        # >> Catch TypeInfos <<
	.long	0                       # TypeInfo 1
	.align	4

	.text
	.align	16, 0x90
	.type	_ZN9__gnu_cxxL27__exchange_and_add_dispatchEPii,@function
_ZN9__gnu_cxxL27__exchange_and_add_dispatchEPii: # @_ZN9__gnu_cxxL27__exchange_and_add_dispatchEPii
	.cfi_startproc
# BB#0:
	pushq	%rbp
.Ltmp423:
	.cfi_def_cfa_offset 16
.Ltmp424:
	.cfi_offset %rbp, -16
	movq	%rsp, %rbp
.Ltmp425:
	.cfi_def_cfa_register %rbp
	subq	$32, %rsp
	movq	%rdi, -16(%rbp)
	movl	%esi, -20(%rbp)
	callq	_ZL18__gthread_active_pv
	cmpl	$0, %eax
	je	.LBB56_2
# BB#1:
	movq	-16(%rbp), %rdi
	movl	-20(%rbp), %esi
	callq	_ZN9__gnu_cxxL18__exchange_and_addEPVii
	movl	%eax, -4(%rbp)
	jmp	.LBB56_3
.LBB56_2:
	movq	-16(%rbp), %rdi
	movl	-20(%rbp), %esi
	callq	_ZN9__gnu_cxxL25__exchange_and_add_singleEPii
	movl	%eax, -4(%rbp)
.LBB56_3:
	movl	-4(%rbp), %eax
	addq	$32, %rsp
	popq	%rbp
	retq
.Ltmp426:
	.size	_ZN9__gnu_cxxL27__exchange_and_add_dispatchEPii, .Ltmp426-_ZN9__gnu_cxxL27__exchange_and_add_dispatchEPii
	.cfi_endproc

	.align	16, 0x90
	.type	_ZN9__gnu_cxxL18__exchange_and_addEPVii,@function
_ZN9__gnu_cxxL18__exchange_and_addEPVii: # @_ZN9__gnu_cxxL18__exchange_and_addEPVii
	.cfi_startproc
# BB#0:
	pushq	%rbp
.Ltmp427:
	.cfi_def_cfa_offset 16
.Ltmp428:
	.cfi_offset %rbp, -16
	movq	%rsp, %rbp
.Ltmp429:
	.cfi_def_cfa_register %rbp
	movq	%rdi, -8(%rbp)
	movl	%esi, -12(%rbp)
	movq	-8(%rbp), %rdi
	movl	%esi, -16(%rbp)
	lock
	xaddl	%esi, (%rdi)
	movl	%esi, -20(%rbp)
	movl	-20(%rbp), %eax
	popq	%rbp
	retq
.Ltmp430:
	.size	_ZN9__gnu_cxxL18__exchange_and_addEPVii, .Ltmp430-_ZN9__gnu_cxxL18__exchange_and_addEPVii
	.cfi_endproc

	.align	16, 0x90
	.type	_ZN9__gnu_cxxL25__exchange_and_add_singleEPii,@function
_ZN9__gnu_cxxL25__exchange_and_add_singleEPii: # @_ZN9__gnu_cxxL25__exchange_and_add_singleEPii
	.cfi_startproc
# BB#0:
	pushq	%rbp
.Ltmp431:
	.cfi_def_cfa_offset 16
.Ltmp432:
	.cfi_offset %rbp, -16
	movq	%rsp, %rbp
.Ltmp433:
	.cfi_def_cfa_register %rbp
	movq	%rdi, -8(%rbp)
	movl	%esi, -12(%rbp)
	movq	-8(%rbp), %rdi
	movl	(%rdi), %esi
	movl	%esi, -16(%rbp)
	movl	-12(%rbp), %esi
	movq	-8(%rbp), %rdi
	addl	(%rdi), %esi
	movl	%esi, (%rdi)
	movl	-16(%rbp), %eax
	popq	%rbp
	retq
.Ltmp434:
	.size	_ZN9__gnu_cxxL25__exchange_and_add_singleEPii, .Ltmp434-_ZN9__gnu_cxxL25__exchange_and_add_singleEPii
	.cfi_endproc

	.align	16, 0x90
	.type	_ZSt4moveIRSt10shared_ptrINSt13__future_base15_Deferred_stateISt12_Bind_simpleIFZ8mmap_mapRKN3Nan20FunctionCallbackInfoIN2v85ValueEEEE3$_0vEEvEEEEONSt16remove_referenceIT_E4typeEOSI_,@function
_ZSt4moveIRSt10shared_ptrINSt13__future_base15_Deferred_stateISt12_Bind_simpleIFZ8mmap_mapRKN3Nan20FunctionCallbackInfoIN2v85ValueEEEE3$_0vEEvEEEEONSt16remove_referenceIT_E4typeEOSI_: # @"_ZSt4moveIRSt10shared_ptrINSt13__future_base15_Deferred_stateISt12_Bind_simpleIFZ8mmap_mapRKN3Nan20FunctionCallbackInfoIN2v85ValueEEEE3$_0vEEvEEEEONSt16remove_referenceIT_E4typeEOSI_"
	.cfi_startproc
# BB#0:
	pushq	%rbp
.Ltmp435:
	.cfi_def_cfa_offset 16
.Ltmp436:
	.cfi_offset %rbp, -16
	movq	%rsp, %rbp
.Ltmp437:
	.cfi_def_cfa_register %rbp
	movq	%rdi, -8(%rbp)
	movq	-8(%rbp), %rax
	popq	%rbp
	retq
.Ltmp438:
	.size	_ZSt4moveIRSt10shared_ptrINSt13__future_base15_Deferred_stateISt12_Bind_simpleIFZ8mmap_mapRKN3Nan20FunctionCallbackInfoIN2v85ValueEEEE3$_0vEEvEEEEONSt16remove_referenceIT_E4typeEOSI_, .Ltmp438-_ZSt4moveIRSt10shared_ptrINSt13__future_base15_Deferred_stateISt12_Bind_simpleIFZ8mmap_mapRKN3Nan20FunctionCallbackInfoIN2v85ValueEEEE3$_0vEEvEEEEONSt16remove_referenceIT_E4typeEOSI_
	.cfi_endproc

	.align	16, 0x90
	.type	_ZNSt12__shared_ptrINSt13__future_base13_State_baseV2ELN9__gnu_cxx12_Lock_policyE2EEC2INS0_15_Deferred_stateISt12_Bind_simpleIFZ8mmap_mapRKN3Nan20FunctionCallbackInfoIN2v85ValueEEEE3$_0vEEvEEvEEOS_IT_LS3_2EE,@function
_ZNSt12__shared_ptrINSt13__future_base13_State_baseV2ELN9__gnu_cxx12_Lock_policyE2EEC2INS0_15_Deferred_stateISt12_Bind_simpleIFZ8mmap_mapRKN3Nan20FunctionCallbackInfoIN2v85ValueEEEE3$_0vEEvEEvEEOS_IT_LS3_2EE: # @"_ZNSt12__shared_ptrINSt13__future_base13_State_baseV2ELN9__gnu_cxx12_Lock_policyE2EEC2INS0_15_Deferred_stateISt12_Bind_simpleIFZ8mmap_mapRKN3Nan20FunctionCallbackInfoIN2v85ValueEEEE3$_0vEEvEEvEEOS_IT_LS3_2EE"
	.cfi_startproc
# BB#0:
	pushq	%rbp
.Ltmp439:
	.cfi_def_cfa_offset 16
.Ltmp440:
	.cfi_offset %rbp, -16
	movq	%rsp, %rbp
.Ltmp441:
	.cfi_def_cfa_register %rbp
	subq	$32, %rsp
	movq	%rdi, -8(%rbp)
	movq	%rsi, -16(%rbp)
	movq	-8(%rbp), %rsi
	movq	-16(%rbp), %rdi
	movq	(%rdi), %rdi
	movq	%rdi, (%rsi)
	movq	%rsi, %rdi
	addq	$8, %rdi
	movq	%rsi, -24(%rbp)         # 8-byte Spill
	callq	_ZNSt14__shared_countILN9__gnu_cxx12_Lock_policyE2EEC2Ev
	movq	-24(%rbp), %rsi         # 8-byte Reload
	addq	$8, %rsi
	movq	-16(%rbp), %rdi
	addq	$8, %rdi
	movq	%rdi, -32(%rbp)         # 8-byte Spill
	movq	%rsi, %rdi
	movq	-32(%rbp), %rsi         # 8-byte Reload
	callq	_ZNSt14__shared_countILN9__gnu_cxx12_Lock_policyE2EE7_M_swapERS2_
	movq	-16(%rbp), %rsi
	movq	$0, (%rsi)
	addq	$32, %rsp
	popq	%rbp
	retq
.Ltmp442:
	.size	_ZNSt12__shared_ptrINSt13__future_base13_State_baseV2ELN9__gnu_cxx12_Lock_policyE2EEC2INS0_15_Deferred_stateISt12_Bind_simpleIFZ8mmap_mapRKN3Nan20FunctionCallbackInfoIN2v85ValueEEEE3$_0vEEvEEvEEOS_IT_LS3_2EE, .Ltmp442-_ZNSt12__shared_ptrINSt13__future_base13_State_baseV2ELN9__gnu_cxx12_Lock_policyE2EEC2INS0_15_Deferred_stateISt12_Bind_simpleIFZ8mmap_mapRKN3Nan20FunctionCallbackInfoIN2v85ValueEEEE3$_0vEEvEEvEEOS_IT_LS3_2EE
	.cfi_endproc

	.section	.text._ZNSt14__shared_countILN9__gnu_cxx12_Lock_policyE2EEC2Ev,"axG",@progbits,_ZNSt14__shared_countILN9__gnu_cxx12_Lock_policyE2EEC2Ev,comdat
	.weak	_ZNSt14__shared_countILN9__gnu_cxx12_Lock_policyE2EEC2Ev
	.align	16, 0x90
	.type	_ZNSt14__shared_countILN9__gnu_cxx12_Lock_policyE2EEC2Ev,@function
_ZNSt14__shared_countILN9__gnu_cxx12_Lock_policyE2EEC2Ev: # @_ZNSt14__shared_countILN9__gnu_cxx12_Lock_policyE2EEC2Ev
	.cfi_startproc
# BB#0:
	pushq	%rbp
.Ltmp443:
	.cfi_def_cfa_offset 16
.Ltmp444:
	.cfi_offset %rbp, -16
	movq	%rsp, %rbp
.Ltmp445:
	.cfi_def_cfa_register %rbp
	movq	%rdi, -8(%rbp)
	movq	-8(%rbp), %rdi
	movq	$0, (%rdi)
	popq	%rbp
	retq
.Ltmp446:
	.size	_ZNSt14__shared_countILN9__gnu_cxx12_Lock_policyE2EEC2Ev, .Ltmp446-_ZNSt14__shared_countILN9__gnu_cxx12_Lock_policyE2EEC2Ev
	.cfi_endproc

	.section	.text._ZNSt14__shared_countILN9__gnu_cxx12_Lock_policyE2EE7_M_swapERS2_,"axG",@progbits,_ZNSt14__shared_countILN9__gnu_cxx12_Lock_policyE2EE7_M_swapERS2_,comdat
	.weak	_ZNSt14__shared_countILN9__gnu_cxx12_Lock_policyE2EE7_M_swapERS2_
	.align	16, 0x90
	.type	_ZNSt14__shared_countILN9__gnu_cxx12_Lock_policyE2EE7_M_swapERS2_,@function
_ZNSt14__shared_countILN9__gnu_cxx12_Lock_policyE2EE7_M_swapERS2_: # @_ZNSt14__shared_countILN9__gnu_cxx12_Lock_policyE2EE7_M_swapERS2_
	.cfi_startproc
# BB#0:
	pushq	%rbp
.Ltmp447:
	.cfi_def_cfa_offset 16
.Ltmp448:
	.cfi_offset %rbp, -16
	movq	%rsp, %rbp
.Ltmp449:
	.cfi_def_cfa_register %rbp
	movq	%rdi, -8(%rbp)
	movq	%rsi, -16(%rbp)
	movq	-8(%rbp), %rsi
	movq	-16(%rbp), %rdi
	movq	(%rdi), %rdi
	movq	%rdi, -24(%rbp)
	movq	(%rsi), %rdi
	movq	-16(%rbp), %rax
	movq	%rdi, (%rax)
	movq	-24(%rbp), %rax
	movq	%rax, (%rsi)
	popq	%rbp
	retq
.Ltmp450:
	.size	_ZNSt14__shared_countILN9__gnu_cxx12_Lock_policyE2EE7_M_swapERS2_, .Ltmp450-_ZNSt14__shared_countILN9__gnu_cxx12_Lock_policyE2EE7_M_swapERS2_
	.cfi_endproc

	.text
	.align	16, 0x90
	.type	_ZSt15allocate_sharedINSt13__future_base15_Deferred_stateISt12_Bind_simpleIFZ8mmap_mapRKN3Nan20FunctionCallbackInfoIN2v85ValueEEEE3$_0vEEvEESaISD_EJSC_EESt10shared_ptrIT_ERKT0_DpOT1_,@function
_ZSt15allocate_sharedINSt13__future_base15_Deferred_stateISt12_Bind_simpleIFZ8mmap_mapRKN3Nan20FunctionCallbackInfoIN2v85ValueEEEE3$_0vEEvEESaISD_EJSC_EESt10shared_ptrIT_ERKT0_DpOT1_: # @"_ZSt15allocate_sharedINSt13__future_base15_Deferred_stateISt12_Bind_simpleIFZ8mmap_mapRKN3Nan20FunctionCallbackInfoIN2v85ValueEEEE3$_0vEEvEESaISD_EJSC_EESt10shared_ptrIT_ERKT0_DpOT1_"
	.cfi_startproc
# BB#0:
	pushq	%rbp
.Ltmp451:
	.cfi_def_cfa_offset 16
.Ltmp452:
	.cfi_offset %rbp, -16
	movq	%rsp, %rbp
.Ltmp453:
	.cfi_def_cfa_register %rbp
	subq	$48, %rsp
	movq	%rdi, %rax
	movq	%rsi, -8(%rbp)
	movq	%rdx, -16(%rbp)
	movq	-8(%rbp), %rsi
	movq	-16(%rbp), %rdx
	movq	%rdi, -32(%rbp)         # 8-byte Spill
	movq	%rdx, %rdi
	movq	%rax, -40(%rbp)         # 8-byte Spill
	movq	%rsi, -48(%rbp)         # 8-byte Spill
	callq	_ZSt7forwardISt12_Bind_simpleIFZ8mmap_mapRKN3Nan20FunctionCallbackInfoIN2v85ValueEEEE3$_0vEEEOT_RNSt16remove_referenceISB_E4typeE
	movq	-32(%rbp), %rdi         # 8-byte Reload
	movq	-48(%rbp), %rsi         # 8-byte Reload
	movq	%rax, %rdx
	callq	_ZNSt10shared_ptrINSt13__future_base15_Deferred_stateISt12_Bind_simpleIFZ8mmap_mapRKN3Nan20FunctionCallbackInfoIN2v85ValueEEEE3$_0vEEvEEEC2ISaISD_EJSC_EEESt19_Sp_make_shared_tagRKT_DpOT0_
	movq	-40(%rbp), %rax         # 8-byte Reload
	addq	$48, %rsp
	popq	%rbp
	retq
.Ltmp454:
	.size	_ZSt15allocate_sharedINSt13__future_base15_Deferred_stateISt12_Bind_simpleIFZ8mmap_mapRKN3Nan20FunctionCallbackInfoIN2v85ValueEEEE3$_0vEEvEESaISD_EJSC_EESt10shared_ptrIT_ERKT0_DpOT1_, .Ltmp454-_ZSt15allocate_sharedINSt13__future_base15_Deferred_stateISt12_Bind_simpleIFZ8mmap_mapRKN3Nan20FunctionCallbackInfoIN2v85ValueEEEE3$_0vEEvEESaISD_EJSC_EESt10shared_ptrIT_ERKT0_DpOT1_
	.cfi_endproc

	.align	16, 0x90
	.type	_ZNSaINSt13__future_base15_Deferred_stateISt12_Bind_simpleIFZ8mmap_mapRKN3Nan20FunctionCallbackInfoIN2v85ValueEEEE3$_0vEEvEEEC2Ev,@function
_ZNSaINSt13__future_base15_Deferred_stateISt12_Bind_simpleIFZ8mmap_mapRKN3Nan20FunctionCallbackInfoIN2v85ValueEEEE3$_0vEEvEEEC2Ev: # @"_ZNSaINSt13__future_base15_Deferred_stateISt12_Bind_simpleIFZ8mmap_mapRKN3Nan20FunctionCallbackInfoIN2v85ValueEEEE3$_0vEEvEEEC2Ev"
	.cfi_startproc
# BB#0:
	pushq	%rbp
.Ltmp455:
	.cfi_def_cfa_offset 16
.Ltmp456:
	.cfi_offset %rbp, -16
	movq	%rsp, %rbp
.Ltmp457:
	.cfi_def_cfa_register %rbp
	subq	$16, %rsp
	movq	%rdi, -8(%rbp)
	movq	-8(%rbp), %rdi
	callq	_ZN9__gnu_cxx13new_allocatorINSt13__future_base15_Deferred_stateISt12_Bind_simpleIFZ8mmap_mapRKN3Nan20FunctionCallbackInfoIN2v85ValueEEEE3$_0vEEvEEEC2Ev
	addq	$16, %rsp
	popq	%rbp
	retq
.Ltmp458:
	.size	_ZNSaINSt13__future_base15_Deferred_stateISt12_Bind_simpleIFZ8mmap_mapRKN3Nan20FunctionCallbackInfoIN2v85ValueEEEE3$_0vEEvEEEC2Ev, .Ltmp458-_ZNSaINSt13__future_base15_Deferred_stateISt12_Bind_simpleIFZ8mmap_mapRKN3Nan20FunctionCallbackInfoIN2v85ValueEEEE3$_0vEEvEEEC2Ev
	.cfi_endproc

	.align	16, 0x90
	.type	_ZSt7forwardISt12_Bind_simpleIFZ8mmap_mapRKN3Nan20FunctionCallbackInfoIN2v85ValueEEEE3$_0vEEEOT_RNSt16remove_referenceISB_E4typeE,@function
_ZSt7forwardISt12_Bind_simpleIFZ8mmap_mapRKN3Nan20FunctionCallbackInfoIN2v85ValueEEEE3$_0vEEEOT_RNSt16remove_referenceISB_E4typeE: # @"_ZSt7forwardISt12_Bind_simpleIFZ8mmap_mapRKN3Nan20FunctionCallbackInfoIN2v85ValueEEEE3$_0vEEEOT_RNSt16remove_referenceISB_E4typeE"
	.cfi_startproc
# BB#0:
	pushq	%rbp
.Ltmp459:
	.cfi_def_cfa_offset 16
.Ltmp460:
	.cfi_offset %rbp, -16
	movq	%rsp, %rbp
.Ltmp461:
	.cfi_def_cfa_register %rbp
	movq	%rdi, -8(%rbp)
	movq	-8(%rbp), %rax
	popq	%rbp
	retq
.Ltmp462:
	.size	_ZSt7forwardISt12_Bind_simpleIFZ8mmap_mapRKN3Nan20FunctionCallbackInfoIN2v85ValueEEEE3$_0vEEEOT_RNSt16remove_referenceISB_E4typeE, .Ltmp462-_ZSt7forwardISt12_Bind_simpleIFZ8mmap_mapRKN3Nan20FunctionCallbackInfoIN2v85ValueEEEE3$_0vEEEOT_RNSt16remove_referenceISB_E4typeE
	.cfi_endproc

	.align	16, 0x90
	.type	_ZNSaINSt13__future_base15_Deferred_stateISt12_Bind_simpleIFZ8mmap_mapRKN3Nan20FunctionCallbackInfoIN2v85ValueEEEE3$_0vEEvEEED2Ev,@function
_ZNSaINSt13__future_base15_Deferred_stateISt12_Bind_simpleIFZ8mmap_mapRKN3Nan20FunctionCallbackInfoIN2v85ValueEEEE3$_0vEEvEEED2Ev: # @"_ZNSaINSt13__future_base15_Deferred_stateISt12_Bind_simpleIFZ8mmap_mapRKN3Nan20FunctionCallbackInfoIN2v85ValueEEEE3$_0vEEvEEED2Ev"
	.cfi_startproc
# BB#0:
	pushq	%rbp
.Ltmp463:
	.cfi_def_cfa_offset 16
.Ltmp464:
	.cfi_offset %rbp, -16
	movq	%rsp, %rbp
.Ltmp465:
	.cfi_def_cfa_register %rbp
	subq	$16, %rsp
	movq	%rdi, -8(%rbp)
	movq	-8(%rbp), %rdi
	callq	_ZN9__gnu_cxx13new_allocatorINSt13__future_base15_Deferred_stateISt12_Bind_simpleIFZ8mmap_mapRKN3Nan20FunctionCallbackInfoIN2v85ValueEEEE3$_0vEEvEEED2Ev
	addq	$16, %rsp
	popq	%rbp
	retq
.Ltmp466:
	.size	_ZNSaINSt13__future_base15_Deferred_stateISt12_Bind_simpleIFZ8mmap_mapRKN3Nan20FunctionCallbackInfoIN2v85ValueEEEE3$_0vEEvEEED2Ev, .Ltmp466-_ZNSaINSt13__future_base15_Deferred_stateISt12_Bind_simpleIFZ8mmap_mapRKN3Nan20FunctionCallbackInfoIN2v85ValueEEEE3$_0vEEvEEED2Ev
	.cfi_endproc

	.align	16, 0x90
	.type	_ZN9__gnu_cxx13new_allocatorINSt13__future_base15_Deferred_stateISt12_Bind_simpleIFZ8mmap_mapRKN3Nan20FunctionCallbackInfoIN2v85ValueEEEE3$_0vEEvEEED2Ev,@function
_ZN9__gnu_cxx13new_allocatorINSt13__future_base15_Deferred_stateISt12_Bind_simpleIFZ8mmap_mapRKN3Nan20FunctionCallbackInfoIN2v85ValueEEEE3$_0vEEvEEED2Ev: # @"_ZN9__gnu_cxx13new_allocatorINSt13__future_base15_Deferred_stateISt12_Bind_simpleIFZ8mmap_mapRKN3Nan20FunctionCallbackInfoIN2v85ValueEEEE3$_0vEEvEEED2Ev"
	.cfi_startproc
# BB#0:
	pushq	%rbp
.Ltmp467:
	.cfi_def_cfa_offset 16
.Ltmp468:
	.cfi_offset %rbp, -16
	movq	%rsp, %rbp
.Ltmp469:
	.cfi_def_cfa_register %rbp
	movq	%rdi, -8(%rbp)
	popq	%rbp
	retq
.Ltmp470:
	.size	_ZN9__gnu_cxx13new_allocatorINSt13__future_base15_Deferred_stateISt12_Bind_simpleIFZ8mmap_mapRKN3Nan20FunctionCallbackInfoIN2v85ValueEEEE3$_0vEEvEEED2Ev, .Ltmp470-_ZN9__gnu_cxx13new_allocatorINSt13__future_base15_Deferred_stateISt12_Bind_simpleIFZ8mmap_mapRKN3Nan20FunctionCallbackInfoIN2v85ValueEEEE3$_0vEEvEEED2Ev
	.cfi_endproc

	.align	16, 0x90
	.type	_ZN9__gnu_cxx13new_allocatorINSt13__future_base15_Deferred_stateISt12_Bind_simpleIFZ8mmap_mapRKN3Nan20FunctionCallbackInfoIN2v85ValueEEEE3$_0vEEvEEEC2Ev,@function
_ZN9__gnu_cxx13new_allocatorINSt13__future_base15_Deferred_stateISt12_Bind_simpleIFZ8mmap_mapRKN3Nan20FunctionCallbackInfoIN2v85ValueEEEE3$_0vEEvEEEC2Ev: # @"_ZN9__gnu_cxx13new_allocatorINSt13__future_base15_Deferred_stateISt12_Bind_simpleIFZ8mmap_mapRKN3Nan20FunctionCallbackInfoIN2v85ValueEEEE3$_0vEEvEEEC2Ev"
	.cfi_startproc
# BB#0:
	pushq	%rbp
.Ltmp471:
	.cfi_def_cfa_offset 16
.Ltmp472:
	.cfi_offset %rbp, -16
	movq	%rsp, %rbp
.Ltmp473:
	.cfi_def_cfa_register %rbp
	movq	%rdi, -8(%rbp)
	popq	%rbp
	retq
.Ltmp474:
	.size	_ZN9__gnu_cxx13new_allocatorINSt13__future_base15_Deferred_stateISt12_Bind_simpleIFZ8mmap_mapRKN3Nan20FunctionCallbackInfoIN2v85ValueEEEE3$_0vEEvEEEC2Ev, .Ltmp474-_ZN9__gnu_cxx13new_allocatorINSt13__future_base15_Deferred_stateISt12_Bind_simpleIFZ8mmap_mapRKN3Nan20FunctionCallbackInfoIN2v85ValueEEEE3$_0vEEvEEEC2Ev
	.cfi_endproc

	.align	16, 0x90
	.type	_ZNSt10shared_ptrINSt13__future_base15_Deferred_stateISt12_Bind_simpleIFZ8mmap_mapRKN3Nan20FunctionCallbackInfoIN2v85ValueEEEE3$_0vEEvEEEC2ISaISD_EJSC_EEESt19_Sp_make_shared_tagRKT_DpOT0_,@function
_ZNSt10shared_ptrINSt13__future_base15_Deferred_stateISt12_Bind_simpleIFZ8mmap_mapRKN3Nan20FunctionCallbackInfoIN2v85ValueEEEE3$_0vEEvEEEC2ISaISD_EJSC_EEESt19_Sp_make_shared_tagRKT_DpOT0_: # @"_ZNSt10shared_ptrINSt13__future_base15_Deferred_stateISt12_Bind_simpleIFZ8mmap_mapRKN3Nan20FunctionCallbackInfoIN2v85ValueEEEE3$_0vEEvEEEC2ISaISD_EJSC_EEESt19_Sp_make_shared_tagRKT_DpOT0_"
	.cfi_startproc
# BB#0:
	pushq	%rbp
.Ltmp475:
	.cfi_def_cfa_offset 16
.Ltmp476:
	.cfi_offset %rbp, -16
	movq	%rsp, %rbp
.Ltmp477:
	.cfi_def_cfa_register %rbp
	subq	$64, %rsp
	movq	%rdi, -16(%rbp)
	movq	%rsi, -24(%rbp)
	movq	%rdx, -32(%rbp)
	movq	-16(%rbp), %rdx
	movq	-24(%rbp), %rsi
	movq	-32(%rbp), %rdi
	movq	%rdx, -48(%rbp)         # 8-byte Spill
	movq	%rsi, -56(%rbp)         # 8-byte Spill
	callq	_ZSt7forwardISt12_Bind_simpleIFZ8mmap_mapRKN3Nan20FunctionCallbackInfoIN2v85ValueEEEE3$_0vEEEOT_RNSt16remove_referenceISB_E4typeE
	movq	-48(%rbp), %rdi         # 8-byte Reload
	movq	-56(%rbp), %rsi         # 8-byte Reload
	movq	%rax, %rdx
	callq	_ZNSt12__shared_ptrINSt13__future_base15_Deferred_stateISt12_Bind_simpleIFZ8mmap_mapRKN3Nan20FunctionCallbackInfoIN2v85ValueEEEE3$_0vEEvEELN9__gnu_cxx12_Lock_policyE2EEC2ISaISD_EJSC_EEESt19_Sp_make_shared_tagRKT_DpOT0_
	addq	$64, %rsp
	popq	%rbp
	retq
.Ltmp478:
	.size	_ZNSt10shared_ptrINSt13__future_base15_Deferred_stateISt12_Bind_simpleIFZ8mmap_mapRKN3Nan20FunctionCallbackInfoIN2v85ValueEEEE3$_0vEEvEEEC2ISaISD_EJSC_EEESt19_Sp_make_shared_tagRKT_DpOT0_, .Ltmp478-_ZNSt10shared_ptrINSt13__future_base15_Deferred_stateISt12_Bind_simpleIFZ8mmap_mapRKN3Nan20FunctionCallbackInfoIN2v85ValueEEEE3$_0vEEvEEEC2ISaISD_EJSC_EEESt19_Sp_make_shared_tagRKT_DpOT0_
	.cfi_endproc

	.align	16, 0x90
	.type	_ZNSt12__shared_ptrINSt13__future_base15_Deferred_stateISt12_Bind_simpleIFZ8mmap_mapRKN3Nan20FunctionCallbackInfoIN2v85ValueEEEE3$_0vEEvEELN9__gnu_cxx12_Lock_policyE2EEC2ISaISD_EJSC_EEESt19_Sp_make_shared_tagRKT_DpOT0_,@function
_ZNSt12__shared_ptrINSt13__future_base15_Deferred_stateISt12_Bind_simpleIFZ8mmap_mapRKN3Nan20FunctionCallbackInfoIN2v85ValueEEEE3$_0vEEvEELN9__gnu_cxx12_Lock_policyE2EEC2ISaISD_EJSC_EEESt19_Sp_make_shared_tagRKT_DpOT0_: # @"_ZNSt12__shared_ptrINSt13__future_base15_Deferred_stateISt12_Bind_simpleIFZ8mmap_mapRKN3Nan20FunctionCallbackInfoIN2v85ValueEEEE3$_0vEEvEELN9__gnu_cxx12_Lock_policyE2EEC2ISaISD_EJSC_EEESt19_Sp_make_shared_tagRKT_DpOT0_"
	.cfi_startproc
# BB#0:
	pushq	%rbp
.Ltmp479:
	.cfi_def_cfa_offset 16
.Ltmp480:
	.cfi_offset %rbp, -16
	movq	%rsp, %rbp
.Ltmp481:
	.cfi_def_cfa_register %rbp
	subq	$80, %rsp
	movq	%rdi, -16(%rbp)
	movq	%rsi, -24(%rbp)
	movq	%rdx, -32(%rbp)
	movq	-16(%rbp), %rdx
	movq	$0, (%rdx)
	movq	%rdx, %rsi
	addq	$8, %rsi
	movq	-24(%rbp), %rdi
	movq	-32(%rbp), %rax
	movq	%rdi, -56(%rbp)         # 8-byte Spill
	movq	%rax, %rdi
	movq	%rdx, -64(%rbp)         # 8-byte Spill
	movq	%rsi, -72(%rbp)         # 8-byte Spill
	callq	_ZSt7forwardISt12_Bind_simpleIFZ8mmap_mapRKN3Nan20FunctionCallbackInfoIN2v85ValueEEEE3$_0vEEEOT_RNSt16remove_referenceISB_E4typeE
	xorl	%ecx, %ecx
	movl	%ecx, %esi
	movq	-72(%rbp), %rdi         # 8-byte Reload
	movq	-56(%rbp), %rdx         # 8-byte Reload
	movq	%rax, %rcx
	callq	_ZNSt14__shared_countILN9__gnu_cxx12_Lock_policyE2EEC2INSt13__future_base15_Deferred_stateISt12_Bind_simpleIFZ8mmap_mapRKN3Nan20FunctionCallbackInfoIN2v85ValueEEEE3$_0vEEvEESaISH_EJSG_EEESt19_Sp_make_shared_tagPT_RKT0_DpOT1_
	movabsq	$_ZTISt19_Sp_make_shared_tag, %rax
	movq	-64(%rbp), %rcx         # 8-byte Reload
	addq	$8, %rcx
	movq	%rcx, %rdi
	movq	%rax, %rsi
	callq	_ZNKSt14__shared_countILN9__gnu_cxx12_Lock_policyE2EE14_M_get_deleterERKSt9type_info
	movq	%rax, -48(%rbp)
	movq	-48(%rbp), %rax
	movq	-64(%rbp), %rcx         # 8-byte Reload
	movq	%rax, (%rcx)
	addq	$8, %rcx
	movq	-64(%rbp), %rax         # 8-byte Reload
	movq	(%rax), %rsi
	movq	(%rax), %rdx
	movq	%rcx, %rdi
	movb	$0, %al
	callq	_ZSt32__enable_shared_from_this_helperILN9__gnu_cxx12_Lock_policyE2EEvRKSt14__shared_countIXT_EEz
	addq	$80, %rsp
	popq	%rbp
	retq
.Ltmp482:
	.size	_ZNSt12__shared_ptrINSt13__future_base15_Deferred_stateISt12_Bind_simpleIFZ8mmap_mapRKN3Nan20FunctionCallbackInfoIN2v85ValueEEEE3$_0vEEvEELN9__gnu_cxx12_Lock_policyE2EEC2ISaISD_EJSC_EEESt19_Sp_make_shared_tagRKT_DpOT0_, .Ltmp482-_ZNSt12__shared_ptrINSt13__future_base15_Deferred_stateISt12_Bind_simpleIFZ8mmap_mapRKN3Nan20FunctionCallbackInfoIN2v85ValueEEEE3$_0vEEvEELN9__gnu_cxx12_Lock_policyE2EEC2ISaISD_EJSC_EEESt19_Sp_make_shared_tagRKT_DpOT0_
	.cfi_endproc

	.align	16, 0x90
	.type	_ZNSt14__shared_countILN9__gnu_cxx12_Lock_policyE2EEC2INSt13__future_base15_Deferred_stateISt12_Bind_simpleIFZ8mmap_mapRKN3Nan20FunctionCallbackInfoIN2v85ValueEEEE3$_0vEEvEESaISH_EJSG_EEESt19_Sp_make_shared_tagPT_RKT0_DpOT1_,@function
_ZNSt14__shared_countILN9__gnu_cxx12_Lock_policyE2EEC2INSt13__future_base15_Deferred_stateISt12_Bind_simpleIFZ8mmap_mapRKN3Nan20FunctionCallbackInfoIN2v85ValueEEEE3$_0vEEvEESaISH_EJSG_EEESt19_Sp_make_shared_tagPT_RKT0_DpOT1_: # @"_ZNSt14__shared_countILN9__gnu_cxx12_Lock_policyE2EEC2INSt13__future_base15_Deferred_stateISt12_Bind_simpleIFZ8mmap_mapRKN3Nan20FunctionCallbackInfoIN2v85ValueEEEE3$_0vEEvEESaISH_EJSG_EEESt19_Sp_make_shared_tagPT_RKT0_DpOT1_"
	.cfi_startproc
	.cfi_personality 3, __gxx_personality_v0
.Leh_func_begin71:
	.cfi_lsda 3, .Lexception71
# BB#0:
	pushq	%rbp
.Ltmp497:
	.cfi_def_cfa_offset 16
.Ltmp498:
	.cfi_offset %rbp, -16
	movq	%rsp, %rbp
.Ltmp499:
	.cfi_def_cfa_register %rbp
	subq	$128, %rsp
	movq	%rdi, -16(%rbp)
	movq	%rsi, -24(%rbp)
	movq	%rdx, -32(%rbp)
	movq	%rcx, -40(%rbp)
	movq	-16(%rbp), %rcx
	movq	$0, (%rcx)
	movq	-32(%rbp), %rsi
	leaq	-48(%rbp), %rdx
	movq	%rdx, %rdi
	movq	%rcx, -80(%rbp)         # 8-byte Spill
	movq	%rdx, -88(%rbp)         # 8-byte Spill
	callq	_ZNSaISt23_Sp_counted_ptr_inplaceINSt13__future_base15_Deferred_stateISt12_Bind_simpleIFZ8mmap_mapRKN3Nan20FunctionCallbackInfoIN2v85ValueEEEE3$_0vEEvEESaISD_ELN9__gnu_cxx12_Lock_policyE2EEEC2ISD_EERKSaIT_E
.Ltmp483:
	movl	$1, %eax
	movl	%eax, %esi
	movq	-88(%rbp), %rdi         # 8-byte Reload
	callq	_ZNSt16allocator_traitsISaISt23_Sp_counted_ptr_inplaceINSt13__future_base15_Deferred_stateISt12_Bind_simpleIFZ8mmap_mapRKN3Nan20FunctionCallbackInfoIN2v85ValueEEEE3$_0vEEvEESaISE_ELN9__gnu_cxx12_Lock_policyE2EEEE8allocateERSJ_m
.Ltmp484:
	movq	%rax, -96(%rbp)         # 8-byte Spill
	jmp	.LBB71_1
.LBB71_1:
	movq	-96(%rbp), %rax         # 8-byte Reload
	movq	%rax, -56(%rbp)
	movq	-32(%rbp), %rdi
	callq	_ZSt4moveIRKSaINSt13__future_base15_Deferred_stateISt12_Bind_simpleIFZ8mmap_mapRKN3Nan20FunctionCallbackInfoIN2v85ValueEEEE3$_0vEEvEEEEONSt16remove_referenceIT_E4typeEOSI_
	movq	-40(%rbp), %rdi
	movq	%rax, -104(%rbp)        # 8-byte Spill
	callq	_ZSt7forwardISt12_Bind_simpleIFZ8mmap_mapRKN3Nan20FunctionCallbackInfoIN2v85ValueEEEE3$_0vEEEOT_RNSt16remove_referenceISB_E4typeE
.Ltmp486:
	leaq	-48(%rbp), %rdi
	movq	-96(%rbp), %rsi         # 8-byte Reload
	movq	-104(%rbp), %rdx        # 8-byte Reload
	movq	%rax, %rcx
	callq	_ZNSt16allocator_traitsISaISt23_Sp_counted_ptr_inplaceINSt13__future_base15_Deferred_stateISt12_Bind_simpleIFZ8mmap_mapRKN3Nan20FunctionCallbackInfoIN2v85ValueEEEE3$_0vEEvEESaISE_ELN9__gnu_cxx12_Lock_policyE2EEEE9constructISI_JKSF_SD_EEEDTcl12_S_constructfp_fp0_spclsr3stdE7forwardIT0_Efp1_EEERSJ_PT_DpOSN_
.Ltmp487:
	jmp	.LBB71_2
.LBB71_2:
	movq	-56(%rbp), %rax
	movq	-80(%rbp), %rcx         # 8-byte Reload
	movq	%rax, (%rcx)
	jmp	.LBB71_9
.LBB71_3:
.Ltmp485:
	movl	%edx, %ecx
	movq	%rax, -64(%rbp)
	movl	%ecx, -68(%rbp)
	jmp	.LBB71_10
.LBB71_4:
.Ltmp488:
	movl	%edx, %ecx
	movq	%rax, -64(%rbp)
	movl	%ecx, -68(%rbp)
# BB#5:
	movq	-64(%rbp), %rdi
	callq	__cxa_begin_catch
	movq	-56(%rbp), %rsi
.Ltmp489:
	movl	$1, %ecx
	movl	%ecx, %edx
	leaq	-48(%rbp), %rdi
	movq	%rax, -112(%rbp)        # 8-byte Spill
	callq	_ZNSt16allocator_traitsISaISt23_Sp_counted_ptr_inplaceINSt13__future_base15_Deferred_stateISt12_Bind_simpleIFZ8mmap_mapRKN3Nan20FunctionCallbackInfoIN2v85ValueEEEE3$_0vEEvEESaISE_ELN9__gnu_cxx12_Lock_policyE2EEEE10deallocateERSJ_PSI_m
.Ltmp490:
	jmp	.LBB71_6
.LBB71_6:
.Ltmp491:
	callq	__cxa_rethrow
.Ltmp492:
	jmp	.LBB71_13
.LBB71_7:
.Ltmp493:
	movl	%edx, %ecx
	movq	%rax, -64(%rbp)
	movl	%ecx, -68(%rbp)
.Ltmp494:
	callq	__cxa_end_catch
.Ltmp495:
	jmp	.LBB71_8
.LBB71_8:
	jmp	.LBB71_10
.LBB71_9:
	leaq	-48(%rbp), %rdi
	callq	_ZNSaISt23_Sp_counted_ptr_inplaceINSt13__future_base15_Deferred_stateISt12_Bind_simpleIFZ8mmap_mapRKN3Nan20FunctionCallbackInfoIN2v85ValueEEEE3$_0vEEvEESaISD_ELN9__gnu_cxx12_Lock_policyE2EEED2Ev
	addq	$128, %rsp
	popq	%rbp
	retq
.LBB71_10:
	leaq	-48(%rbp), %rdi
	callq	_ZNSaISt23_Sp_counted_ptr_inplaceINSt13__future_base15_Deferred_stateISt12_Bind_simpleIFZ8mmap_mapRKN3Nan20FunctionCallbackInfoIN2v85ValueEEEE3$_0vEEvEESaISD_ELN9__gnu_cxx12_Lock_policyE2EEED2Ev
# BB#11:
	movq	-64(%rbp), %rdi
	callq	_Unwind_Resume
.LBB71_12:
.Ltmp496:
	movl	%edx, %ecx
	movq	%rax, %rdi
	movl	%ecx, -116(%rbp)        # 4-byte Spill
	callq	__clang_call_terminate
.LBB71_13:
.Ltmp500:
	.size	_ZNSt14__shared_countILN9__gnu_cxx12_Lock_policyE2EEC2INSt13__future_base15_Deferred_stateISt12_Bind_simpleIFZ8mmap_mapRKN3Nan20FunctionCallbackInfoIN2v85ValueEEEE3$_0vEEvEESaISH_EJSG_EEESt19_Sp_make_shared_tagPT_RKT0_DpOT1_, .Ltmp500-_ZNSt14__shared_countILN9__gnu_cxx12_Lock_policyE2EEC2INSt13__future_base15_Deferred_stateISt12_Bind_simpleIFZ8mmap_mapRKN3Nan20FunctionCallbackInfoIN2v85ValueEEEE3$_0vEEvEESaISH_EJSG_EEESt19_Sp_make_shared_tagPT_RKT0_DpOT1_
	.cfi_endproc
.Leh_func_end71:
	.section	.gcc_except_table,"a",@progbits
	.align	4
GCC_except_table71:
.Lexception71:
	.byte	255                     # @LPStart Encoding = omit
	.byte	3                       # @TType Encoding = udata4
	.asciz	"\326\200\200"          # @TType base offset
	.byte	3                       # Call site Encoding = udata4
	.byte	78                      # Call site table length
	.long	.Ltmp483-.Leh_func_begin71 # >> Call Site 1 <<
	.long	.Ltmp484-.Ltmp483       #   Call between .Ltmp483 and .Ltmp484
	.long	.Ltmp485-.Leh_func_begin71 #     jumps to .Ltmp485
	.byte	0                       #   On action: cleanup
	.long	.Ltmp486-.Leh_func_begin71 # >> Call Site 2 <<
	.long	.Ltmp487-.Ltmp486       #   Call between .Ltmp486 and .Ltmp487
	.long	.Ltmp488-.Leh_func_begin71 #     jumps to .Ltmp488
	.byte	1                       #   On action: 1
	.long	.Ltmp487-.Leh_func_begin71 # >> Call Site 3 <<
	.long	.Ltmp489-.Ltmp487       #   Call between .Ltmp487 and .Ltmp489
	.long	0                       #     has no landing pad
	.byte	0                       #   On action: cleanup
	.long	.Ltmp489-.Leh_func_begin71 # >> Call Site 4 <<
	.long	.Ltmp492-.Ltmp489       #   Call between .Ltmp489 and .Ltmp492
	.long	.Ltmp493-.Leh_func_begin71 #     jumps to .Ltmp493
	.byte	0                       #   On action: cleanup
	.long	.Ltmp494-.Leh_func_begin71 # >> Call Site 5 <<
	.long	.Ltmp495-.Ltmp494       #   Call between .Ltmp494 and .Ltmp495
	.long	.Ltmp496-.Leh_func_begin71 #     jumps to .Ltmp496
	.byte	1                       #   On action: 1
	.long	.Ltmp495-.Leh_func_begin71 # >> Call Site 6 <<
	.long	.Leh_func_end71-.Ltmp495 #   Call between .Ltmp495 and .Leh_func_end71
	.long	0                       #     has no landing pad
	.byte	0                       #   On action: cleanup
	.byte	1                       # >> Action Record 1 <<
                                        #   Catch TypeInfo 1
	.byte	0                       #   No further actions
                                        # >> Catch TypeInfos <<
	.long	0                       # TypeInfo 1
	.align	4

	.section	.text._ZNKSt14__shared_countILN9__gnu_cxx12_Lock_policyE2EE14_M_get_deleterERKSt9type_info,"axG",@progbits,_ZNKSt14__shared_countILN9__gnu_cxx12_Lock_policyE2EE14_M_get_deleterERKSt9type_info,comdat
	.weak	_ZNKSt14__shared_countILN9__gnu_cxx12_Lock_policyE2EE14_M_get_deleterERKSt9type_info
	.align	16, 0x90
	.type	_ZNKSt14__shared_countILN9__gnu_cxx12_Lock_policyE2EE14_M_get_deleterERKSt9type_info,@function
_ZNKSt14__shared_countILN9__gnu_cxx12_Lock_policyE2EE14_M_get_deleterERKSt9type_info: # @_ZNKSt14__shared_countILN9__gnu_cxx12_Lock_policyE2EE14_M_get_deleterERKSt9type_info
	.cfi_startproc
# BB#0:
	pushq	%rbp
.Ltmp501:
	.cfi_def_cfa_offset 16
.Ltmp502:
	.cfi_offset %rbp, -16
	movq	%rsp, %rbp
.Ltmp503:
	.cfi_def_cfa_register %rbp
	subq	$32, %rsp
	movq	%rdi, -8(%rbp)
	movq	%rsi, -16(%rbp)
	movq	-8(%rbp), %rsi
	cmpq	$0, (%rsi)
	movq	%rsi, -24(%rbp)         # 8-byte Spill
	je	.LBB72_2
# BB#1:
	movq	-24(%rbp), %rax         # 8-byte Reload
	movq	(%rax), %rcx
	movq	(%rcx), %rdx
	movq	32(%rdx), %rdx
	movq	-16(%rbp), %rsi
	movq	%rcx, %rdi
	callq	*%rdx
	movq	%rax, -32(%rbp)         # 8-byte Spill
	jmp	.LBB72_3
.LBB72_2:
	xorl	%eax, %eax
	movl	%eax, %ecx
	movq	%rcx, -32(%rbp)         # 8-byte Spill
	jmp	.LBB72_3
.LBB72_3:
	movq	-32(%rbp), %rax         # 8-byte Reload
	addq	$32, %rsp
	popq	%rbp
	retq
.Ltmp504:
	.size	_ZNKSt14__shared_countILN9__gnu_cxx12_Lock_policyE2EE14_M_get_deleterERKSt9type_info, .Ltmp504-_ZNKSt14__shared_countILN9__gnu_cxx12_Lock_policyE2EE14_M_get_deleterERKSt9type_info
	.cfi_endproc

	.section	.text._ZSt32__enable_shared_from_this_helperILN9__gnu_cxx12_Lock_policyE2EEvRKSt14__shared_countIXT_EEz,"axG",@progbits,_ZSt32__enable_shared_from_this_helperILN9__gnu_cxx12_Lock_policyE2EEvRKSt14__shared_countIXT_EEz,comdat
	.weak	_ZSt32__enable_shared_from_this_helperILN9__gnu_cxx12_Lock_policyE2EEvRKSt14__shared_countIXT_EEz
	.align	16, 0x90
	.type	_ZSt32__enable_shared_from_this_helperILN9__gnu_cxx12_Lock_policyE2EEvRKSt14__shared_countIXT_EEz,@function
_ZSt32__enable_shared_from_this_helperILN9__gnu_cxx12_Lock_policyE2EEvRKSt14__shared_countIXT_EEz: # @_ZSt32__enable_shared_from_this_helperILN9__gnu_cxx12_Lock_policyE2EEvRKSt14__shared_countIXT_EEz
	.cfi_startproc
# BB#0:
	pushq	%rbp
.Ltmp505:
	.cfi_def_cfa_offset 16
.Ltmp506:
	.cfi_offset %rbp, -16
	movq	%rsp, %rbp
.Ltmp507:
	.cfi_def_cfa_register %rbp
	movq	%rdi, -8(%rbp)
	popq	%rbp
	retq
.Ltmp508:
	.size	_ZSt32__enable_shared_from_this_helperILN9__gnu_cxx12_Lock_policyE2EEvRKSt14__shared_countIXT_EEz, .Ltmp508-_ZSt32__enable_shared_from_this_helperILN9__gnu_cxx12_Lock_policyE2EEvRKSt14__shared_countIXT_EEz
	.cfi_endproc

	.text
	.align	16, 0x90
	.type	_ZNSaISt23_Sp_counted_ptr_inplaceINSt13__future_base15_Deferred_stateISt12_Bind_simpleIFZ8mmap_mapRKN3Nan20FunctionCallbackInfoIN2v85ValueEEEE3$_0vEEvEESaISD_ELN9__gnu_cxx12_Lock_policyE2EEEC2ISD_EERKSaIT_E,@function
_ZNSaISt23_Sp_counted_ptr_inplaceINSt13__future_base15_Deferred_stateISt12_Bind_simpleIFZ8mmap_mapRKN3Nan20FunctionCallbackInfoIN2v85ValueEEEE3$_0vEEvEESaISD_ELN9__gnu_cxx12_Lock_policyE2EEEC2ISD_EERKSaIT_E: # @"_ZNSaISt23_Sp_counted_ptr_inplaceINSt13__future_base15_Deferred_stateISt12_Bind_simpleIFZ8mmap_mapRKN3Nan20FunctionCallbackInfoIN2v85ValueEEEE3$_0vEEvEESaISD_ELN9__gnu_cxx12_Lock_policyE2EEEC2ISD_EERKSaIT_E"
	.cfi_startproc
# BB#0:
	pushq	%rbp
.Ltmp509:
	.cfi_def_cfa_offset 16
.Ltmp510:
	.cfi_offset %rbp, -16
	movq	%rsp, %rbp
.Ltmp511:
	.cfi_def_cfa_register %rbp
	subq	$16, %rsp
	movq	%rdi, -8(%rbp)
	movq	%rsi, -16(%rbp)
	movq	-8(%rbp), %rsi
	movq	%rsi, %rdi
	callq	_ZN9__gnu_cxx13new_allocatorISt23_Sp_counted_ptr_inplaceINSt13__future_base15_Deferred_stateISt12_Bind_simpleIFZ8mmap_mapRKN3Nan20FunctionCallbackInfoIN2v85ValueEEEE3$_0vEEvEESaISF_ELNS_12_Lock_policyE2EEEC2Ev
	addq	$16, %rsp
	popq	%rbp
	retq
.Ltmp512:
	.size	_ZNSaISt23_Sp_counted_ptr_inplaceINSt13__future_base15_Deferred_stateISt12_Bind_simpleIFZ8mmap_mapRKN3Nan20FunctionCallbackInfoIN2v85ValueEEEE3$_0vEEvEESaISD_ELN9__gnu_cxx12_Lock_policyE2EEEC2ISD_EERKSaIT_E, .Ltmp512-_ZNSaISt23_Sp_counted_ptr_inplaceINSt13__future_base15_Deferred_stateISt12_Bind_simpleIFZ8mmap_mapRKN3Nan20FunctionCallbackInfoIN2v85ValueEEEE3$_0vEEvEESaISD_ELN9__gnu_cxx12_Lock_policyE2EEEC2ISD_EERKSaIT_E
	.cfi_endproc

	.align	16, 0x90
	.type	_ZNSt16allocator_traitsISaISt23_Sp_counted_ptr_inplaceINSt13__future_base15_Deferred_stateISt12_Bind_simpleIFZ8mmap_mapRKN3Nan20FunctionCallbackInfoIN2v85ValueEEEE3$_0vEEvEESaISE_ELN9__gnu_cxx12_Lock_policyE2EEEE8allocateERSJ_m,@function
_ZNSt16allocator_traitsISaISt23_Sp_counted_ptr_inplaceINSt13__future_base15_Deferred_stateISt12_Bind_simpleIFZ8mmap_mapRKN3Nan20FunctionCallbackInfoIN2v85ValueEEEE3$_0vEEvEESaISE_ELN9__gnu_cxx12_Lock_policyE2EEEE8allocateERSJ_m: # @"_ZNSt16allocator_traitsISaISt23_Sp_counted_ptr_inplaceINSt13__future_base15_Deferred_stateISt12_Bind_simpleIFZ8mmap_mapRKN3Nan20FunctionCallbackInfoIN2v85ValueEEEE3$_0vEEvEESaISE_ELN9__gnu_cxx12_Lock_policyE2EEEE8allocateERSJ_m"
	.cfi_startproc
# BB#0:
	pushq	%rbp
.Ltmp513:
	.cfi_def_cfa_offset 16
.Ltmp514:
	.cfi_offset %rbp, -16
	movq	%rsp, %rbp
.Ltmp515:
	.cfi_def_cfa_register %rbp
	subq	$32, %rsp
	xorl	%eax, %eax
	movl	%eax, %edx
	movq	%rdi, -8(%rbp)
	movq	%rsi, -16(%rbp)
	movq	-8(%rbp), %rsi
	movq	-16(%rbp), %rdi
	movq	%rdi, -24(%rbp)         # 8-byte Spill
	movq	%rsi, %rdi
	movq	-24(%rbp), %rsi         # 8-byte Reload
	callq	_ZN9__gnu_cxx13new_allocatorISt23_Sp_counted_ptr_inplaceINSt13__future_base15_Deferred_stateISt12_Bind_simpleIFZ8mmap_mapRKN3Nan20FunctionCallbackInfoIN2v85ValueEEEE3$_0vEEvEESaISF_ELNS_12_Lock_policyE2EEE8allocateEmPKv
	addq	$32, %rsp
	popq	%rbp
	retq
.Ltmp516:
	.size	_ZNSt16allocator_traitsISaISt23_Sp_counted_ptr_inplaceINSt13__future_base15_Deferred_stateISt12_Bind_simpleIFZ8mmap_mapRKN3Nan20FunctionCallbackInfoIN2v85ValueEEEE3$_0vEEvEESaISE_ELN9__gnu_cxx12_Lock_policyE2EEEE8allocateERSJ_m, .Ltmp516-_ZNSt16allocator_traitsISaISt23_Sp_counted_ptr_inplaceINSt13__future_base15_Deferred_stateISt12_Bind_simpleIFZ8mmap_mapRKN3Nan20FunctionCallbackInfoIN2v85ValueEEEE3$_0vEEvEESaISE_ELN9__gnu_cxx12_Lock_policyE2EEEE8allocateERSJ_m
	.cfi_endproc

	.align	16, 0x90
	.type	_ZNSt16allocator_traitsISaISt23_Sp_counted_ptr_inplaceINSt13__future_base15_Deferred_stateISt12_Bind_simpleIFZ8mmap_mapRKN3Nan20FunctionCallbackInfoIN2v85ValueEEEE3$_0vEEvEESaISE_ELN9__gnu_cxx12_Lock_policyE2EEEE9constructISI_JKSF_SD_EEEDTcl12_S_constructfp_fp0_spclsr3stdE7forwardIT0_Efp1_EEERSJ_PT_DpOSN_,@function
_ZNSt16allocator_traitsISaISt23_Sp_counted_ptr_inplaceINSt13__future_base15_Deferred_stateISt12_Bind_simpleIFZ8mmap_mapRKN3Nan20FunctionCallbackInfoIN2v85ValueEEEE3$_0vEEvEESaISE_ELN9__gnu_cxx12_Lock_policyE2EEEE9constructISI_JKSF_SD_EEEDTcl12_S_constructfp_fp0_spclsr3stdE7forwardIT0_Efp1_EEERSJ_PT_DpOSN_: # @"_ZNSt16allocator_traitsISaISt23_Sp_counted_ptr_inplaceINSt13__future_base15_Deferred_stateISt12_Bind_simpleIFZ8mmap_mapRKN3Nan20FunctionCallbackInfoIN2v85ValueEEEE3$_0vEEvEESaISE_ELN9__gnu_cxx12_Lock_policyE2EEEE9constructISI_JKSF_SD_EEEDTcl12_S_constructfp_fp0_spclsr3stdE7forwardIT0_Efp1_EEERSJ_PT_DpOSN_"
	.cfi_startproc
# BB#0:
	pushq	%rbp
.Ltmp517:
	.cfi_def_cfa_offset 16
.Ltmp518:
	.cfi_offset %rbp, -16
	movq	%rsp, %rbp
.Ltmp519:
	.cfi_def_cfa_register %rbp
	subq	$64, %rsp
	movq	%rdi, -8(%rbp)
	movq	%rsi, -16(%rbp)
	movq	%rdx, -24(%rbp)
	movq	%rcx, -32(%rbp)
	movq	-8(%rbp), %rdi
	movq	-16(%rbp), %rsi
	movq	-24(%rbp), %rcx
	movq	%rdi, -40(%rbp)         # 8-byte Spill
	movq	%rcx, %rdi
	movq	%rsi, -48(%rbp)         # 8-byte Spill
	callq	_ZSt7forwardIKSaINSt13__future_base15_Deferred_stateISt12_Bind_simpleIFZ8mmap_mapRKN3Nan20FunctionCallbackInfoIN2v85ValueEEEE3$_0vEEvEEEEOT_RNSt16remove_referenceISG_E4typeE
	movq	-32(%rbp), %rdi
	movq	%rax, -56(%rbp)         # 8-byte Spill
	callq	_ZSt7forwardISt12_Bind_simpleIFZ8mmap_mapRKN3Nan20FunctionCallbackInfoIN2v85ValueEEEE3$_0vEEEOT_RNSt16remove_referenceISB_E4typeE
	movq	-40(%rbp), %rdi         # 8-byte Reload
	movq	-48(%rbp), %rsi         # 8-byte Reload
	movq	-56(%rbp), %rdx         # 8-byte Reload
	movq	%rax, %rcx
	callq	_ZNSt16allocator_traitsISaISt23_Sp_counted_ptr_inplaceINSt13__future_base15_Deferred_stateISt12_Bind_simpleIFZ8mmap_mapRKN3Nan20FunctionCallbackInfoIN2v85ValueEEEE3$_0vEEvEESaISE_ELN9__gnu_cxx12_Lock_policyE2EEEE12_S_constructISI_JKSF_SD_EEENSt9enable_ifIXsr6__and_INSK_18__construct_helperIT_JDpT0_EE4typeEEE5valueEvE4typeERSJ_PSP_DpOSQ_
	addq	$64, %rsp
	popq	%rbp
	retq
.Ltmp520:
	.size	_ZNSt16allocator_traitsISaISt23_Sp_counted_ptr_inplaceINSt13__future_base15_Deferred_stateISt12_Bind_simpleIFZ8mmap_mapRKN3Nan20FunctionCallbackInfoIN2v85ValueEEEE3$_0vEEvEESaISE_ELN9__gnu_cxx12_Lock_policyE2EEEE9constructISI_JKSF_SD_EEEDTcl12_S_constructfp_fp0_spclsr3stdE7forwardIT0_Efp1_EEERSJ_PT_DpOSN_, .Ltmp520-_ZNSt16allocator_traitsISaISt23_Sp_counted_ptr_inplaceINSt13__future_base15_Deferred_stateISt12_Bind_simpleIFZ8mmap_mapRKN3Nan20FunctionCallbackInfoIN2v85ValueEEEE3$_0vEEvEESaISE_ELN9__gnu_cxx12_Lock_policyE2EEEE9constructISI_JKSF_SD_EEEDTcl12_S_constructfp_fp0_spclsr3stdE7forwardIT0_Efp1_EEERSJ_PT_DpOSN_
	.cfi_endproc

	.align	16, 0x90
	.type	_ZSt4moveIRKSaINSt13__future_base15_Deferred_stateISt12_Bind_simpleIFZ8mmap_mapRKN3Nan20FunctionCallbackInfoIN2v85ValueEEEE3$_0vEEvEEEEONSt16remove_referenceIT_E4typeEOSI_,@function
_ZSt4moveIRKSaINSt13__future_base15_Deferred_stateISt12_Bind_simpleIFZ8mmap_mapRKN3Nan20FunctionCallbackInfoIN2v85ValueEEEE3$_0vEEvEEEEONSt16remove_referenceIT_E4typeEOSI_: # @"_ZSt4moveIRKSaINSt13__future_base15_Deferred_stateISt12_Bind_simpleIFZ8mmap_mapRKN3Nan20FunctionCallbackInfoIN2v85ValueEEEE3$_0vEEvEEEEONSt16remove_referenceIT_E4typeEOSI_"
	.cfi_startproc
# BB#0:
	pushq	%rbp
.Ltmp521:
	.cfi_def_cfa_offset 16
.Ltmp522:
	.cfi_offset %rbp, -16
	movq	%rsp, %rbp
.Ltmp523:
	.cfi_def_cfa_register %rbp
	movq	%rdi, -8(%rbp)
	movq	-8(%rbp), %rax
	popq	%rbp
	retq
.Ltmp524:
	.size	_ZSt4moveIRKSaINSt13__future_base15_Deferred_stateISt12_Bind_simpleIFZ8mmap_mapRKN3Nan20FunctionCallbackInfoIN2v85ValueEEEE3$_0vEEvEEEEONSt16remove_referenceIT_E4typeEOSI_, .Ltmp524-_ZSt4moveIRKSaINSt13__future_base15_Deferred_stateISt12_Bind_simpleIFZ8mmap_mapRKN3Nan20FunctionCallbackInfoIN2v85ValueEEEE3$_0vEEvEEEEONSt16remove_referenceIT_E4typeEOSI_
	.cfi_endproc

	.align	16, 0x90
	.type	_ZNSt16allocator_traitsISaISt23_Sp_counted_ptr_inplaceINSt13__future_base15_Deferred_stateISt12_Bind_simpleIFZ8mmap_mapRKN3Nan20FunctionCallbackInfoIN2v85ValueEEEE3$_0vEEvEESaISE_ELN9__gnu_cxx12_Lock_policyE2EEEE10deallocateERSJ_PSI_m,@function
_ZNSt16allocator_traitsISaISt23_Sp_counted_ptr_inplaceINSt13__future_base15_Deferred_stateISt12_Bind_simpleIFZ8mmap_mapRKN3Nan20FunctionCallbackInfoIN2v85ValueEEEE3$_0vEEvEESaISE_ELN9__gnu_cxx12_Lock_policyE2EEEE10deallocateERSJ_PSI_m: # @"_ZNSt16allocator_traitsISaISt23_Sp_counted_ptr_inplaceINSt13__future_base15_Deferred_stateISt12_Bind_simpleIFZ8mmap_mapRKN3Nan20FunctionCallbackInfoIN2v85ValueEEEE3$_0vEEvEESaISE_ELN9__gnu_cxx12_Lock_policyE2EEEE10deallocateERSJ_PSI_m"
	.cfi_startproc
# BB#0:
	pushq	%rbp
.Ltmp525:
	.cfi_def_cfa_offset 16
.Ltmp526:
	.cfi_offset %rbp, -16
	movq	%rsp, %rbp
.Ltmp527:
	.cfi_def_cfa_register %rbp
	subq	$32, %rsp
	movq	%rdi, -8(%rbp)
	movq	%rsi, -16(%rbp)
	movq	%rdx, -24(%rbp)
	movq	-8(%rbp), %rdx
	movq	-16(%rbp), %rsi
	movq	-24(%rbp), %rdi
	movq	%rdi, -32(%rbp)         # 8-byte Spill
	movq	%rdx, %rdi
	movq	-32(%rbp), %rdx         # 8-byte Reload
	callq	_ZN9__gnu_cxx13new_allocatorISt23_Sp_counted_ptr_inplaceINSt13__future_base15_Deferred_stateISt12_Bind_simpleIFZ8mmap_mapRKN3Nan20FunctionCallbackInfoIN2v85ValueEEEE3$_0vEEvEESaISF_ELNS_12_Lock_policyE2EEE10deallocateEPSI_m
	addq	$32, %rsp
	popq	%rbp
	retq
.Ltmp528:
	.size	_ZNSt16allocator_traitsISaISt23_Sp_counted_ptr_inplaceINSt13__future_base15_Deferred_stateISt12_Bind_simpleIFZ8mmap_mapRKN3Nan20FunctionCallbackInfoIN2v85ValueEEEE3$_0vEEvEESaISE_ELN9__gnu_cxx12_Lock_policyE2EEEE10deallocateERSJ_PSI_m, .Ltmp528-_ZNSt16allocator_traitsISaISt23_Sp_counted_ptr_inplaceINSt13__future_base15_Deferred_stateISt12_Bind_simpleIFZ8mmap_mapRKN3Nan20FunctionCallbackInfoIN2v85ValueEEEE3$_0vEEvEESaISE_ELN9__gnu_cxx12_Lock_policyE2EEEE10deallocateERSJ_PSI_m
	.cfi_endproc

	.align	16, 0x90
	.type	_ZNSaISt23_Sp_counted_ptr_inplaceINSt13__future_base15_Deferred_stateISt12_Bind_simpleIFZ8mmap_mapRKN3Nan20FunctionCallbackInfoIN2v85ValueEEEE3$_0vEEvEESaISD_ELN9__gnu_cxx12_Lock_policyE2EEED2Ev,@function
_ZNSaISt23_Sp_counted_ptr_inplaceINSt13__future_base15_Deferred_stateISt12_Bind_simpleIFZ8mmap_mapRKN3Nan20FunctionCallbackInfoIN2v85ValueEEEE3$_0vEEvEESaISD_ELN9__gnu_cxx12_Lock_policyE2EEED2Ev: # @"_ZNSaISt23_Sp_counted_ptr_inplaceINSt13__future_base15_Deferred_stateISt12_Bind_simpleIFZ8mmap_mapRKN3Nan20FunctionCallbackInfoIN2v85ValueEEEE3$_0vEEvEESaISD_ELN9__gnu_cxx12_Lock_policyE2EEED2Ev"
	.cfi_startproc
# BB#0:
	pushq	%rbp
.Ltmp529:
	.cfi_def_cfa_offset 16
.Ltmp530:
	.cfi_offset %rbp, -16
	movq	%rsp, %rbp
.Ltmp531:
	.cfi_def_cfa_register %rbp
	subq	$16, %rsp
	movq	%rdi, -8(%rbp)
	movq	-8(%rbp), %rdi
	callq	_ZN9__gnu_cxx13new_allocatorISt23_Sp_counted_ptr_inplaceINSt13__future_base15_Deferred_stateISt12_Bind_simpleIFZ8mmap_mapRKN3Nan20FunctionCallbackInfoIN2v85ValueEEEE3$_0vEEvEESaISF_ELNS_12_Lock_policyE2EEED2Ev
	addq	$16, %rsp
	popq	%rbp
	retq
.Ltmp532:
	.size	_ZNSaISt23_Sp_counted_ptr_inplaceINSt13__future_base15_Deferred_stateISt12_Bind_simpleIFZ8mmap_mapRKN3Nan20FunctionCallbackInfoIN2v85ValueEEEE3$_0vEEvEESaISD_ELN9__gnu_cxx12_Lock_policyE2EEED2Ev, .Ltmp532-_ZNSaISt23_Sp_counted_ptr_inplaceINSt13__future_base15_Deferred_stateISt12_Bind_simpleIFZ8mmap_mapRKN3Nan20FunctionCallbackInfoIN2v85ValueEEEE3$_0vEEvEESaISD_ELN9__gnu_cxx12_Lock_policyE2EEED2Ev
	.cfi_endproc

	.align	16, 0x90
	.type	_ZN9__gnu_cxx13new_allocatorISt23_Sp_counted_ptr_inplaceINSt13__future_base15_Deferred_stateISt12_Bind_simpleIFZ8mmap_mapRKN3Nan20FunctionCallbackInfoIN2v85ValueEEEE3$_0vEEvEESaISF_ELNS_12_Lock_policyE2EEED2Ev,@function
_ZN9__gnu_cxx13new_allocatorISt23_Sp_counted_ptr_inplaceINSt13__future_base15_Deferred_stateISt12_Bind_simpleIFZ8mmap_mapRKN3Nan20FunctionCallbackInfoIN2v85ValueEEEE3$_0vEEvEESaISF_ELNS_12_Lock_policyE2EEED2Ev: # @"_ZN9__gnu_cxx13new_allocatorISt23_Sp_counted_ptr_inplaceINSt13__future_base15_Deferred_stateISt12_Bind_simpleIFZ8mmap_mapRKN3Nan20FunctionCallbackInfoIN2v85ValueEEEE3$_0vEEvEESaISF_ELNS_12_Lock_policyE2EEED2Ev"
	.cfi_startproc
# BB#0:
	pushq	%rbp
.Ltmp533:
	.cfi_def_cfa_offset 16
.Ltmp534:
	.cfi_offset %rbp, -16
	movq	%rsp, %rbp
.Ltmp535:
	.cfi_def_cfa_register %rbp
	movq	%rdi, -8(%rbp)
	popq	%rbp
	retq
.Ltmp536:
	.size	_ZN9__gnu_cxx13new_allocatorISt23_Sp_counted_ptr_inplaceINSt13__future_base15_Deferred_stateISt12_Bind_simpleIFZ8mmap_mapRKN3Nan20FunctionCallbackInfoIN2v85ValueEEEE3$_0vEEvEESaISF_ELNS_12_Lock_policyE2EEED2Ev, .Ltmp536-_ZN9__gnu_cxx13new_allocatorISt23_Sp_counted_ptr_inplaceINSt13__future_base15_Deferred_stateISt12_Bind_simpleIFZ8mmap_mapRKN3Nan20FunctionCallbackInfoIN2v85ValueEEEE3$_0vEEvEESaISF_ELNS_12_Lock_policyE2EEED2Ev
	.cfi_endproc

	.align	16, 0x90
	.type	_ZN9__gnu_cxx13new_allocatorISt23_Sp_counted_ptr_inplaceINSt13__future_base15_Deferred_stateISt12_Bind_simpleIFZ8mmap_mapRKN3Nan20FunctionCallbackInfoIN2v85ValueEEEE3$_0vEEvEESaISF_ELNS_12_Lock_policyE2EEE10deallocateEPSI_m,@function
_ZN9__gnu_cxx13new_allocatorISt23_Sp_counted_ptr_inplaceINSt13__future_base15_Deferred_stateISt12_Bind_simpleIFZ8mmap_mapRKN3Nan20FunctionCallbackInfoIN2v85ValueEEEE3$_0vEEvEESaISF_ELNS_12_Lock_policyE2EEE10deallocateEPSI_m: # @"_ZN9__gnu_cxx13new_allocatorISt23_Sp_counted_ptr_inplaceINSt13__future_base15_Deferred_stateISt12_Bind_simpleIFZ8mmap_mapRKN3Nan20FunctionCallbackInfoIN2v85ValueEEEE3$_0vEEvEESaISF_ELNS_12_Lock_policyE2EEE10deallocateEPSI_m"
	.cfi_startproc
# BB#0:
	pushq	%rbp
.Ltmp537:
	.cfi_def_cfa_offset 16
.Ltmp538:
	.cfi_offset %rbp, -16
	movq	%rsp, %rbp
.Ltmp539:
	.cfi_def_cfa_register %rbp
	subq	$32, %rsp
	movq	%rdi, -8(%rbp)
	movq	%rsi, -16(%rbp)
	movq	%rdx, -24(%rbp)
	movq	-16(%rbp), %rdx
	movq	%rdx, %rdi
	callq	_ZdlPv
	addq	$32, %rsp
	popq	%rbp
	retq
.Ltmp540:
	.size	_ZN9__gnu_cxx13new_allocatorISt23_Sp_counted_ptr_inplaceINSt13__future_base15_Deferred_stateISt12_Bind_simpleIFZ8mmap_mapRKN3Nan20FunctionCallbackInfoIN2v85ValueEEEE3$_0vEEvEESaISF_ELNS_12_Lock_policyE2EEE10deallocateEPSI_m, .Ltmp540-_ZN9__gnu_cxx13new_allocatorISt23_Sp_counted_ptr_inplaceINSt13__future_base15_Deferred_stateISt12_Bind_simpleIFZ8mmap_mapRKN3Nan20FunctionCallbackInfoIN2v85ValueEEEE3$_0vEEvEESaISF_ELNS_12_Lock_policyE2EEE10deallocateEPSI_m
	.cfi_endproc

	.align	16, 0x90
	.type	_ZNSt16allocator_traitsISaISt23_Sp_counted_ptr_inplaceINSt13__future_base15_Deferred_stateISt12_Bind_simpleIFZ8mmap_mapRKN3Nan20FunctionCallbackInfoIN2v85ValueEEEE3$_0vEEvEESaISE_ELN9__gnu_cxx12_Lock_policyE2EEEE12_S_constructISI_JKSF_SD_EEENSt9enable_ifIXsr6__and_INSK_18__construct_helperIT_JDpT0_EE4typeEEE5valueEvE4typeERSJ_PSP_DpOSQ_,@function
_ZNSt16allocator_traitsISaISt23_Sp_counted_ptr_inplaceINSt13__future_base15_Deferred_stateISt12_Bind_simpleIFZ8mmap_mapRKN3Nan20FunctionCallbackInfoIN2v85ValueEEEE3$_0vEEvEESaISE_ELN9__gnu_cxx12_Lock_policyE2EEEE12_S_constructISI_JKSF_SD_EEENSt9enable_ifIXsr6__and_INSK_18__construct_helperIT_JDpT0_EE4typeEEE5valueEvE4typeERSJ_PSP_DpOSQ_: # @"_ZNSt16allocator_traitsISaISt23_Sp_counted_ptr_inplaceINSt13__future_base15_Deferred_stateISt12_Bind_simpleIFZ8mmap_mapRKN3Nan20FunctionCallbackInfoIN2v85ValueEEEE3$_0vEEvEESaISE_ELN9__gnu_cxx12_Lock_policyE2EEEE12_S_constructISI_JKSF_SD_EEENSt9enable_ifIXsr6__and_INSK_18__construct_helperIT_JDpT0_EE4typeEEE5valueEvE4typeERSJ_PSP_DpOSQ_"
	.cfi_startproc
# BB#0:
	pushq	%rbp
.Ltmp541:
	.cfi_def_cfa_offset 16
.Ltmp542:
	.cfi_offset %rbp, -16
	movq	%rsp, %rbp
.Ltmp543:
	.cfi_def_cfa_register %rbp
	subq	$64, %rsp
	movq	%rdi, -8(%rbp)
	movq	%rsi, -16(%rbp)
	movq	%rdx, -24(%rbp)
	movq	%rcx, -32(%rbp)
	movq	-8(%rbp), %rcx
	movq	-16(%rbp), %rsi
	movq	-24(%rbp), %rdi
	movq	%rcx, -40(%rbp)         # 8-byte Spill
	movq	%rsi, -48(%rbp)         # 8-byte Spill
	callq	_ZSt7forwardIKSaINSt13__future_base15_Deferred_stateISt12_Bind_simpleIFZ8mmap_mapRKN3Nan20FunctionCallbackInfoIN2v85ValueEEEE3$_0vEEvEEEEOT_RNSt16remove_referenceISG_E4typeE
	movq	-32(%rbp), %rdi
	movq	%rax, -56(%rbp)         # 8-byte Spill
	callq	_ZSt7forwardISt12_Bind_simpleIFZ8mmap_mapRKN3Nan20FunctionCallbackInfoIN2v85ValueEEEE3$_0vEEEOT_RNSt16remove_referenceISB_E4typeE
	movq	-40(%rbp), %rdi         # 8-byte Reload
	movq	-48(%rbp), %rsi         # 8-byte Reload
	movq	-56(%rbp), %rdx         # 8-byte Reload
	movq	%rax, %rcx
	callq	_ZN9__gnu_cxx13new_allocatorISt23_Sp_counted_ptr_inplaceINSt13__future_base15_Deferred_stateISt12_Bind_simpleIFZ8mmap_mapRKN3Nan20FunctionCallbackInfoIN2v85ValueEEEE3$_0vEEvEESaISF_ELNS_12_Lock_policyE2EEE9constructISI_JKSG_SE_EEEvPT_DpOT0_
	addq	$64, %rsp
	popq	%rbp
	retq
.Ltmp544:
	.size	_ZNSt16allocator_traitsISaISt23_Sp_counted_ptr_inplaceINSt13__future_base15_Deferred_stateISt12_Bind_simpleIFZ8mmap_mapRKN3Nan20FunctionCallbackInfoIN2v85ValueEEEE3$_0vEEvEESaISE_ELN9__gnu_cxx12_Lock_policyE2EEEE12_S_constructISI_JKSF_SD_EEENSt9enable_ifIXsr6__and_INSK_18__construct_helperIT_JDpT0_EE4typeEEE5valueEvE4typeERSJ_PSP_DpOSQ_, .Ltmp544-_ZNSt16allocator_traitsISaISt23_Sp_counted_ptr_inplaceINSt13__future_base15_Deferred_stateISt12_Bind_simpleIFZ8mmap_mapRKN3Nan20FunctionCallbackInfoIN2v85ValueEEEE3$_0vEEvEESaISE_ELN9__gnu_cxx12_Lock_policyE2EEEE12_S_constructISI_JKSF_SD_EEENSt9enable_ifIXsr6__and_INSK_18__construct_helperIT_JDpT0_EE4typeEEE5valueEvE4typeERSJ_PSP_DpOSQ_
	.cfi_endproc

	.align	16, 0x90
	.type	_ZSt7forwardIKSaINSt13__future_base15_Deferred_stateISt12_Bind_simpleIFZ8mmap_mapRKN3Nan20FunctionCallbackInfoIN2v85ValueEEEE3$_0vEEvEEEEOT_RNSt16remove_referenceISG_E4typeE,@function
_ZSt7forwardIKSaINSt13__future_base15_Deferred_stateISt12_Bind_simpleIFZ8mmap_mapRKN3Nan20FunctionCallbackInfoIN2v85ValueEEEE3$_0vEEvEEEEOT_RNSt16remove_referenceISG_E4typeE: # @"_ZSt7forwardIKSaINSt13__future_base15_Deferred_stateISt12_Bind_simpleIFZ8mmap_mapRKN3Nan20FunctionCallbackInfoIN2v85ValueEEEE3$_0vEEvEEEEOT_RNSt16remove_referenceISG_E4typeE"
	.cfi_startproc
# BB#0:
	pushq	%rbp
.Ltmp545:
	.cfi_def_cfa_offset 16
.Ltmp546:
	.cfi_offset %rbp, -16
	movq	%rsp, %rbp
.Ltmp547:
	.cfi_def_cfa_register %rbp
	movq	%rdi, -8(%rbp)
	movq	-8(%rbp), %rax
	popq	%rbp
	retq
.Ltmp548:
	.size	_ZSt7forwardIKSaINSt13__future_base15_Deferred_stateISt12_Bind_simpleIFZ8mmap_mapRKN3Nan20FunctionCallbackInfoIN2v85ValueEEEE3$_0vEEvEEEEOT_RNSt16remove_referenceISG_E4typeE, .Ltmp548-_ZSt7forwardIKSaINSt13__future_base15_Deferred_stateISt12_Bind_simpleIFZ8mmap_mapRKN3Nan20FunctionCallbackInfoIN2v85ValueEEEE3$_0vEEvEEEEOT_RNSt16remove_referenceISG_E4typeE
	.cfi_endproc

	.align	16, 0x90
	.type	_ZN9__gnu_cxx13new_allocatorISt23_Sp_counted_ptr_inplaceINSt13__future_base15_Deferred_stateISt12_Bind_simpleIFZ8mmap_mapRKN3Nan20FunctionCallbackInfoIN2v85ValueEEEE3$_0vEEvEESaISF_ELNS_12_Lock_policyE2EEE9constructISI_JKSG_SE_EEEvPT_DpOT0_,@function
_ZN9__gnu_cxx13new_allocatorISt23_Sp_counted_ptr_inplaceINSt13__future_base15_Deferred_stateISt12_Bind_simpleIFZ8mmap_mapRKN3Nan20FunctionCallbackInfoIN2v85ValueEEEE3$_0vEEvEESaISF_ELNS_12_Lock_policyE2EEE9constructISI_JKSG_SE_EEEvPT_DpOT0_: # @"_ZN9__gnu_cxx13new_allocatorISt23_Sp_counted_ptr_inplaceINSt13__future_base15_Deferred_stateISt12_Bind_simpleIFZ8mmap_mapRKN3Nan20FunctionCallbackInfoIN2v85ValueEEEE3$_0vEEvEESaISF_ELNS_12_Lock_policyE2EEE9constructISI_JKSG_SE_EEEvPT_DpOT0_"
	.cfi_startproc
	.cfi_personality 3, __gxx_personality_v0
.Leh_func_begin84:
	.cfi_lsda 3, .Lexception84
# BB#0:
	pushq	%rbp
.Ltmp552:
	.cfi_def_cfa_offset 16
.Ltmp553:
	.cfi_offset %rbp, -16
	movq	%rsp, %rbp
.Ltmp554:
	.cfi_def_cfa_register %rbp
	subq	$96, %rsp
	movq	%rdi, -8(%rbp)
	movq	%rsi, -16(%rbp)
	movq	%rdx, -24(%rbp)
	movq	%rcx, -32(%rbp)
	movq	-16(%rbp), %rcx
	movb	$0, -41(%rbp)
	cmpq	$0, %rcx
	movq	%rcx, -72(%rbp)         # 8-byte Spill
	je	.LBB84_3
# BB#1:
	movq	-72(%rbp), %rax         # 8-byte Reload
	movq	-24(%rbp), %rdi
	movq	%rax, -80(%rbp)         # 8-byte Spill
	callq	_ZSt7forwardIKSaINSt13__future_base15_Deferred_stateISt12_Bind_simpleIFZ8mmap_mapRKN3Nan20FunctionCallbackInfoIN2v85ValueEEEE3$_0vEEvEEEEOT_RNSt16remove_referenceISG_E4typeE
	leaq	-40(%rbp), %rdi
	movq	%rdi, -88(%rbp)         # 8-byte Spill
	movq	%rax, %rsi
	callq	_ZNSaINSt13__future_base15_Deferred_stateISt12_Bind_simpleIFZ8mmap_mapRKN3Nan20FunctionCallbackInfoIN2v85ValueEEEE3$_0vEEvEEEC2ERKSD_
	movb	$1, -41(%rbp)
	movq	-32(%rbp), %rdi
	callq	_ZSt7forwardISt12_Bind_simpleIFZ8mmap_mapRKN3Nan20FunctionCallbackInfoIN2v85ValueEEEE3$_0vEEEOT_RNSt16remove_referenceISB_E4typeE
.Ltmp549:
	movq	-72(%rbp), %rdi         # 8-byte Reload
	movq	-88(%rbp), %rsi         # 8-byte Reload
	movq	%rax, %rdx
	callq	_ZNSt23_Sp_counted_ptr_inplaceINSt13__future_base15_Deferred_stateISt12_Bind_simpleIFZ8mmap_mapRKN3Nan20FunctionCallbackInfoIN2v85ValueEEEE3$_0vEEvEESaISD_ELN9__gnu_cxx12_Lock_policyE2EEC2IJSC_EEESE_DpOT_
.Ltmp550:
	jmp	.LBB84_2
.LBB84_2:
	jmp	.LBB84_3
.LBB84_3:
	testb	$1, -41(%rbp)
	jne	.LBB84_4
	jmp	.LBB84_5
.LBB84_4:
	leaq	-40(%rbp), %rdi
	callq	_ZNSaINSt13__future_base15_Deferred_stateISt12_Bind_simpleIFZ8mmap_mapRKN3Nan20FunctionCallbackInfoIN2v85ValueEEEE3$_0vEEvEEED2Ev
.LBB84_5:
	addq	$96, %rsp
	popq	%rbp
	retq
.LBB84_6:
.Ltmp551:
	movl	%edx, %ecx
	movq	%rax, -56(%rbp)
	movl	%ecx, -60(%rbp)
	testb	$1, -41(%rbp)
	jne	.LBB84_7
	jmp	.LBB84_8
.LBB84_7:
	leaq	-40(%rbp), %rdi
	callq	_ZNSaINSt13__future_base15_Deferred_stateISt12_Bind_simpleIFZ8mmap_mapRKN3Nan20FunctionCallbackInfoIN2v85ValueEEEE3$_0vEEvEEED2Ev
.LBB84_8:
	jmp	.LBB84_9
.LBB84_9:
	movq	-56(%rbp), %rdi
	callq	_Unwind_Resume
.Ltmp555:
	.size	_ZN9__gnu_cxx13new_allocatorISt23_Sp_counted_ptr_inplaceINSt13__future_base15_Deferred_stateISt12_Bind_simpleIFZ8mmap_mapRKN3Nan20FunctionCallbackInfoIN2v85ValueEEEE3$_0vEEvEESaISF_ELNS_12_Lock_policyE2EEE9constructISI_JKSG_SE_EEEvPT_DpOT0_, .Ltmp555-_ZN9__gnu_cxx13new_allocatorISt23_Sp_counted_ptr_inplaceINSt13__future_base15_Deferred_stateISt12_Bind_simpleIFZ8mmap_mapRKN3Nan20FunctionCallbackInfoIN2v85ValueEEEE3$_0vEEvEESaISF_ELNS_12_Lock_policyE2EEE9constructISI_JKSG_SE_EEEvPT_DpOT0_
	.cfi_endproc
.Leh_func_end84:
	.section	.gcc_except_table,"a",@progbits
	.align	4
GCC_except_table84:
.Lexception84:
	.byte	255                     # @LPStart Encoding = omit
	.byte	3                       # @TType Encoding = udata4
	.asciz	"\234"                  # @TType base offset
	.byte	3                       # Call site Encoding = udata4
	.byte	26                      # Call site table length
	.long	.Ltmp549-.Leh_func_begin84 # >> Call Site 1 <<
	.long	.Ltmp550-.Ltmp549       #   Call between .Ltmp549 and .Ltmp550
	.long	.Ltmp551-.Leh_func_begin84 #     jumps to .Ltmp551
	.byte	0                       #   On action: cleanup
	.long	.Ltmp550-.Leh_func_begin84 # >> Call Site 2 <<
	.long	.Leh_func_end84-.Ltmp550 #   Call between .Ltmp550 and .Leh_func_end84
	.long	0                       #     has no landing pad
	.byte	0                       #   On action: cleanup
	.align	4

	.text
	.align	16, 0x90
	.type	_ZNSaINSt13__future_base15_Deferred_stateISt12_Bind_simpleIFZ8mmap_mapRKN3Nan20FunctionCallbackInfoIN2v85ValueEEEE3$_0vEEvEEEC2ERKSD_,@function
_ZNSaINSt13__future_base15_Deferred_stateISt12_Bind_simpleIFZ8mmap_mapRKN3Nan20FunctionCallbackInfoIN2v85ValueEEEE3$_0vEEvEEEC2ERKSD_: # @"_ZNSaINSt13__future_base15_Deferred_stateISt12_Bind_simpleIFZ8mmap_mapRKN3Nan20FunctionCallbackInfoIN2v85ValueEEEE3$_0vEEvEEEC2ERKSD_"
	.cfi_startproc
# BB#0:
	pushq	%rbp
.Ltmp556:
	.cfi_def_cfa_offset 16
.Ltmp557:
	.cfi_offset %rbp, -16
	movq	%rsp, %rbp
.Ltmp558:
	.cfi_def_cfa_register %rbp
	subq	$32, %rsp
	movq	%rdi, -8(%rbp)
	movq	%rsi, -16(%rbp)
	movq	-8(%rbp), %rsi
	movq	-16(%rbp), %rdi
	movq	%rdi, -24(%rbp)         # 8-byte Spill
	movq	%rsi, %rdi
	movq	-24(%rbp), %rsi         # 8-byte Reload
	callq	_ZN9__gnu_cxx13new_allocatorINSt13__future_base15_Deferred_stateISt12_Bind_simpleIFZ8mmap_mapRKN3Nan20FunctionCallbackInfoIN2v85ValueEEEE3$_0vEEvEEEC2ERKSF_
	addq	$32, %rsp
	popq	%rbp
	retq
.Ltmp559:
	.size	_ZNSaINSt13__future_base15_Deferred_stateISt12_Bind_simpleIFZ8mmap_mapRKN3Nan20FunctionCallbackInfoIN2v85ValueEEEE3$_0vEEvEEEC2ERKSD_, .Ltmp559-_ZNSaINSt13__future_base15_Deferred_stateISt12_Bind_simpleIFZ8mmap_mapRKN3Nan20FunctionCallbackInfoIN2v85ValueEEEE3$_0vEEvEEEC2ERKSD_
	.cfi_endproc

	.align	16, 0x90
	.type	_ZNSt23_Sp_counted_ptr_inplaceINSt13__future_base15_Deferred_stateISt12_Bind_simpleIFZ8mmap_mapRKN3Nan20FunctionCallbackInfoIN2v85ValueEEEE3$_0vEEvEESaISD_ELN9__gnu_cxx12_Lock_policyE2EEC2IJSC_EEESE_DpOT_,@function
_ZNSt23_Sp_counted_ptr_inplaceINSt13__future_base15_Deferred_stateISt12_Bind_simpleIFZ8mmap_mapRKN3Nan20FunctionCallbackInfoIN2v85ValueEEEE3$_0vEEvEESaISD_ELN9__gnu_cxx12_Lock_policyE2EEC2IJSC_EEESE_DpOT_: # @"_ZNSt23_Sp_counted_ptr_inplaceINSt13__future_base15_Deferred_stateISt12_Bind_simpleIFZ8mmap_mapRKN3Nan20FunctionCallbackInfoIN2v85ValueEEEE3$_0vEEvEESaISD_ELN9__gnu_cxx12_Lock_policyE2EEC2IJSC_EEESE_DpOT_"
	.cfi_startproc
	.cfi_personality 3, __gxx_personality_v0
.Leh_func_begin86:
	.cfi_lsda 3, .Lexception86
# BB#0:
	pushq	%rbp
.Ltmp563:
	.cfi_def_cfa_offset 16
.Ltmp564:
	.cfi_offset %rbp, -16
	movq	%rsp, %rbp
.Ltmp565:
	.cfi_def_cfa_register %rbp
	subq	$80, %rsp
	movq	%rdi, -8(%rbp)
	movq	%rdx, -16(%rbp)
	movq	-8(%rbp), %rdx
	movq	%rdx, %rdi
	movq	%rsi, -48(%rbp)         # 8-byte Spill
	movq	%rdx, -56(%rbp)         # 8-byte Spill
	callq	_ZNSt16_Sp_counted_baseILN9__gnu_cxx12_Lock_policyE2EEC2Ev
	movq	-56(%rbp), %rdx         # 8-byte Reload
	movq	$_ZTVSt23_Sp_counted_ptr_inplaceINSt13__future_base15_Deferred_stateISt12_Bind_simpleIFZ8mmap_mapRKN3Nan20FunctionCallbackInfoIN2v85ValueEEEE3$_0vEEvEESaISD_ELN9__gnu_cxx12_Lock_policyE2EE+16, (%rdx)
	addq	$16, %rdx
	leaq	-24(%rbp), %rsi
	movq	%rsi, %rdi
	movq	-48(%rbp), %rax         # 8-byte Reload
	movq	%rsi, -64(%rbp)         # 8-byte Spill
	movq	%rax, %rsi
	movq	%rdx, -72(%rbp)         # 8-byte Spill
	callq	_ZNSaINSt13__future_base15_Deferred_stateISt12_Bind_simpleIFZ8mmap_mapRKN3Nan20FunctionCallbackInfoIN2v85ValueEEEE3$_0vEEvEEEC2ERKSD_
	movq	-72(%rbp), %rdi         # 8-byte Reload
	movq	-64(%rbp), %rsi         # 8-byte Reload
	callq	_ZNSt23_Sp_counted_ptr_inplaceINSt13__future_base15_Deferred_stateISt12_Bind_simpleIFZ8mmap_mapRKN3Nan20FunctionCallbackInfoIN2v85ValueEEEE3$_0vEEvEESaISD_ELN9__gnu_cxx12_Lock_policyE2EE5_ImplC2ESE_
	movq	-64(%rbp), %rdi         # 8-byte Reload
	callq	_ZNSaINSt13__future_base15_Deferred_stateISt12_Bind_simpleIFZ8mmap_mapRKN3Nan20FunctionCallbackInfoIN2v85ValueEEEE3$_0vEEvEEED2Ev
	movq	-56(%rbp), %rdi         # 8-byte Reload
	callq	_ZNSt23_Sp_counted_ptr_inplaceINSt13__future_base15_Deferred_stateISt12_Bind_simpleIFZ8mmap_mapRKN3Nan20FunctionCallbackInfoIN2v85ValueEEEE3$_0vEEvEESaISD_ELN9__gnu_cxx12_Lock_policyE2EE6_M_ptrEv
	movq	-16(%rbp), %rdi
	movq	%rax, -80(%rbp)         # 8-byte Spill
	callq	_ZSt7forwardISt12_Bind_simpleIFZ8mmap_mapRKN3Nan20FunctionCallbackInfoIN2v85ValueEEEE3$_0vEEEOT_RNSt16remove_referenceISB_E4typeE
.Ltmp560:
	movq	-48(%rbp), %rdi         # 8-byte Reload
	movq	-80(%rbp), %rsi         # 8-byte Reload
	movq	%rax, %rdx
	callq	_ZNSt16allocator_traitsISaINSt13__future_base15_Deferred_stateISt12_Bind_simpleIFZ8mmap_mapRKN3Nan20FunctionCallbackInfoIN2v85ValueEEEE3$_0vEEvEEEE9constructISD_JSC_EEEDTcl12_S_constructfp_fp0_spclsr3stdE7forwardIT0_Efp1_EEERSE_PT_DpOSH_
.Ltmp561:
	jmp	.LBB86_1
.LBB86_1:
	addq	$80, %rsp
	popq	%rbp
	retq
.LBB86_2:
.Ltmp562:
	movl	%edx, %ecx
	movq	%rax, -32(%rbp)
	movl	%ecx, -36(%rbp)
	movq	-72(%rbp), %rdi         # 8-byte Reload
	callq	_ZNSt23_Sp_counted_ptr_inplaceINSt13__future_base15_Deferred_stateISt12_Bind_simpleIFZ8mmap_mapRKN3Nan20FunctionCallbackInfoIN2v85ValueEEEE3$_0vEEvEESaISD_ELN9__gnu_cxx12_Lock_policyE2EE5_ImplD2Ev
	movq	-56(%rbp), %rax         # 8-byte Reload
	movq	%rax, %rdi
	callq	_ZNSt16_Sp_counted_baseILN9__gnu_cxx12_Lock_policyE2EED2Ev
# BB#3:
	movq	-32(%rbp), %rdi
	callq	_Unwind_Resume
.Ltmp566:
	.size	_ZNSt23_Sp_counted_ptr_inplaceINSt13__future_base15_Deferred_stateISt12_Bind_simpleIFZ8mmap_mapRKN3Nan20FunctionCallbackInfoIN2v85ValueEEEE3$_0vEEvEESaISD_ELN9__gnu_cxx12_Lock_policyE2EEC2IJSC_EEESE_DpOT_, .Ltmp566-_ZNSt23_Sp_counted_ptr_inplaceINSt13__future_base15_Deferred_stateISt12_Bind_simpleIFZ8mmap_mapRKN3Nan20FunctionCallbackInfoIN2v85ValueEEEE3$_0vEEvEESaISD_ELN9__gnu_cxx12_Lock_policyE2EEC2IJSC_EEESE_DpOT_
	.cfi_endproc
.Leh_func_end86:
	.section	.gcc_except_table,"a",@progbits
	.align	4
GCC_except_table86:
.Lexception86:
	.byte	255                     # @LPStart Encoding = omit
	.byte	3                       # @TType Encoding = udata4
	.asciz	"\234"                  # @TType base offset
	.byte	3                       # Call site Encoding = udata4
	.byte	26                      # Call site table length
	.long	.Ltmp560-.Leh_func_begin86 # >> Call Site 1 <<
	.long	.Ltmp561-.Ltmp560       #   Call between .Ltmp560 and .Ltmp561
	.long	.Ltmp562-.Leh_func_begin86 #     jumps to .Ltmp562
	.byte	0                       #   On action: cleanup
	.long	.Ltmp561-.Leh_func_begin86 # >> Call Site 2 <<
	.long	.Leh_func_end86-.Ltmp561 #   Call between .Ltmp561 and .Leh_func_end86
	.long	0                       #     has no landing pad
	.byte	0                       #   On action: cleanup
	.align	4

	.section	.text._ZNSt16_Sp_counted_baseILN9__gnu_cxx12_Lock_policyE2EEC2Ev,"axG",@progbits,_ZNSt16_Sp_counted_baseILN9__gnu_cxx12_Lock_policyE2EEC2Ev,comdat
	.weak	_ZNSt16_Sp_counted_baseILN9__gnu_cxx12_Lock_policyE2EEC2Ev
	.align	16, 0x90
	.type	_ZNSt16_Sp_counted_baseILN9__gnu_cxx12_Lock_policyE2EEC2Ev,@function
_ZNSt16_Sp_counted_baseILN9__gnu_cxx12_Lock_policyE2EEC2Ev: # @_ZNSt16_Sp_counted_baseILN9__gnu_cxx12_Lock_policyE2EEC2Ev
	.cfi_startproc
# BB#0:
	pushq	%rbp
.Ltmp567:
	.cfi_def_cfa_offset 16
.Ltmp568:
	.cfi_offset %rbp, -16
	movq	%rsp, %rbp
.Ltmp569:
	.cfi_def_cfa_register %rbp
	movabsq	$_ZTVSt16_Sp_counted_baseILN9__gnu_cxx12_Lock_policyE2EE, %rax
	addq	$16, %rax
	movq	%rdi, -8(%rbp)
	movq	-8(%rbp), %rdi
	movq	%rax, (%rdi)
	movl	$1, 8(%rdi)
	movl	$1, 12(%rdi)
	popq	%rbp
	retq
.Ltmp570:
	.size	_ZNSt16_Sp_counted_baseILN9__gnu_cxx12_Lock_policyE2EEC2Ev, .Ltmp570-_ZNSt16_Sp_counted_baseILN9__gnu_cxx12_Lock_policyE2EEC2Ev
	.cfi_endproc

	.text
	.align	16, 0x90
	.type	_ZNSt23_Sp_counted_ptr_inplaceINSt13__future_base15_Deferred_stateISt12_Bind_simpleIFZ8mmap_mapRKN3Nan20FunctionCallbackInfoIN2v85ValueEEEE3$_0vEEvEESaISD_ELN9__gnu_cxx12_Lock_policyE2EE5_ImplC2ESE_,@function
_ZNSt23_Sp_counted_ptr_inplaceINSt13__future_base15_Deferred_stateISt12_Bind_simpleIFZ8mmap_mapRKN3Nan20FunctionCallbackInfoIN2v85ValueEEEE3$_0vEEvEESaISD_ELN9__gnu_cxx12_Lock_policyE2EE5_ImplC2ESE_: # @"_ZNSt23_Sp_counted_ptr_inplaceINSt13__future_base15_Deferred_stateISt12_Bind_simpleIFZ8mmap_mapRKN3Nan20FunctionCallbackInfoIN2v85ValueEEEE3$_0vEEvEESaISD_ELN9__gnu_cxx12_Lock_policyE2EE5_ImplC2ESE_"
	.cfi_startproc
	.cfi_personality 3, __gxx_personality_v0
.Leh_func_begin88:
	.cfi_lsda 3, .Lexception88
# BB#0:
	pushq	%rbp
.Ltmp574:
	.cfi_def_cfa_offset 16
.Ltmp575:
	.cfi_offset %rbp, -16
	movq	%rsp, %rbp
.Ltmp576:
	.cfi_def_cfa_register %rbp
	subq	$32, %rsp
	movq	%rdi, -8(%rbp)
	movq	%rdi, %rax
.Ltmp571:
	movq	%rax, -16(%rbp)         # 8-byte Spill
	callq	_ZNSt14_Sp_ebo_helperILi0ESaINSt13__future_base15_Deferred_stateISt12_Bind_simpleIFZ8mmap_mapRKN3Nan20FunctionCallbackInfoIN2v85ValueEEEE3$_0vEEvEEELb1EEC2ERKSE_
.Ltmp572:
	jmp	.LBB88_1
.LBB88_1:
	addq	$32, %rsp
	popq	%rbp
	retq
.LBB88_2:
.Ltmp573:
	movl	%edx, %ecx
	movq	%rax, %rdi
	movl	%ecx, -20(%rbp)         # 4-byte Spill
	callq	__clang_call_terminate
.Ltmp577:
	.size	_ZNSt23_Sp_counted_ptr_inplaceINSt13__future_base15_Deferred_stateISt12_Bind_simpleIFZ8mmap_mapRKN3Nan20FunctionCallbackInfoIN2v85ValueEEEE3$_0vEEvEESaISD_ELN9__gnu_cxx12_Lock_policyE2EE5_ImplC2ESE_, .Ltmp577-_ZNSt23_Sp_counted_ptr_inplaceINSt13__future_base15_Deferred_stateISt12_Bind_simpleIFZ8mmap_mapRKN3Nan20FunctionCallbackInfoIN2v85ValueEEEE3$_0vEEvEESaISD_ELN9__gnu_cxx12_Lock_policyE2EE5_ImplC2ESE_
	.cfi_endproc
.Leh_func_end88:
	.section	.gcc_except_table,"a",@progbits
	.align	4
GCC_except_table88:
.Lexception88:
	.byte	255                     # @LPStart Encoding = omit
	.byte	3                       # @TType Encoding = udata4
	.byte	21                      # @TType base offset
	.byte	3                       # Call site Encoding = udata4
	.byte	13                      # Call site table length
	.long	.Ltmp571-.Leh_func_begin88 # >> Call Site 1 <<
	.long	.Ltmp572-.Ltmp571       #   Call between .Ltmp571 and .Ltmp572
	.long	.Ltmp573-.Leh_func_begin88 #     jumps to .Ltmp573
	.byte	1                       #   On action: 1
	.byte	1                       # >> Action Record 1 <<
                                        #   Catch TypeInfo 1
	.byte	0                       #   No further actions
                                        # >> Catch TypeInfos <<
	.long	0                       # TypeInfo 1
	.align	4

	.text
	.align	16, 0x90
	.type	_ZNSt16allocator_traitsISaINSt13__future_base15_Deferred_stateISt12_Bind_simpleIFZ8mmap_mapRKN3Nan20FunctionCallbackInfoIN2v85ValueEEEE3$_0vEEvEEEE9constructISD_JSC_EEEDTcl12_S_constructfp_fp0_spclsr3stdE7forwardIT0_Efp1_EEERSE_PT_DpOSH_,@function
_ZNSt16allocator_traitsISaINSt13__future_base15_Deferred_stateISt12_Bind_simpleIFZ8mmap_mapRKN3Nan20FunctionCallbackInfoIN2v85ValueEEEE3$_0vEEvEEEE9constructISD_JSC_EEEDTcl12_S_constructfp_fp0_spclsr3stdE7forwardIT0_Efp1_EEERSE_PT_DpOSH_: # @"_ZNSt16allocator_traitsISaINSt13__future_base15_Deferred_stateISt12_Bind_simpleIFZ8mmap_mapRKN3Nan20FunctionCallbackInfoIN2v85ValueEEEE3$_0vEEvEEEE9constructISD_JSC_EEEDTcl12_S_constructfp_fp0_spclsr3stdE7forwardIT0_Efp1_EEERSE_PT_DpOSH_"
	.cfi_startproc
# BB#0:
	pushq	%rbp
.Ltmp578:
	.cfi_def_cfa_offset 16
.Ltmp579:
	.cfi_offset %rbp, -16
	movq	%rsp, %rbp
.Ltmp580:
	.cfi_def_cfa_register %rbp
	subq	$48, %rsp
	movq	%rdi, -8(%rbp)
	movq	%rsi, -16(%rbp)
	movq	%rdx, -24(%rbp)
	movq	-8(%rbp), %rdi
	movq	-16(%rbp), %rsi
	movq	-24(%rbp), %rdx
	movq	%rdi, -32(%rbp)         # 8-byte Spill
	movq	%rdx, %rdi
	movq	%rsi, -40(%rbp)         # 8-byte Spill
	callq	_ZSt7forwardISt12_Bind_simpleIFZ8mmap_mapRKN3Nan20FunctionCallbackInfoIN2v85ValueEEEE3$_0vEEEOT_RNSt16remove_referenceISB_E4typeE
	movq	-32(%rbp), %rdi         # 8-byte Reload
	movq	-40(%rbp), %rsi         # 8-byte Reload
	movq	%rax, %rdx
	callq	_ZNSt16allocator_traitsISaINSt13__future_base15_Deferred_stateISt12_Bind_simpleIFZ8mmap_mapRKN3Nan20FunctionCallbackInfoIN2v85ValueEEEE3$_0vEEvEEEE12_S_constructISD_JSC_EEENSt9enable_ifIXsr6__and_INSF_18__construct_helperIT_JDpT0_EE4typeEEE5valueEvE4typeERSE_PSJ_DpOSK_
	addq	$48, %rsp
	popq	%rbp
	retq
.Ltmp581:
	.size	_ZNSt16allocator_traitsISaINSt13__future_base15_Deferred_stateISt12_Bind_simpleIFZ8mmap_mapRKN3Nan20FunctionCallbackInfoIN2v85ValueEEEE3$_0vEEvEEEE9constructISD_JSC_EEEDTcl12_S_constructfp_fp0_spclsr3stdE7forwardIT0_Efp1_EEERSE_PT_DpOSH_, .Ltmp581-_ZNSt16allocator_traitsISaINSt13__future_base15_Deferred_stateISt12_Bind_simpleIFZ8mmap_mapRKN3Nan20FunctionCallbackInfoIN2v85ValueEEEE3$_0vEEvEEEE9constructISD_JSC_EEEDTcl12_S_constructfp_fp0_spclsr3stdE7forwardIT0_Efp1_EEERSE_PT_DpOSH_
	.cfi_endproc

	.align	16, 0x90
	.type	_ZNSt23_Sp_counted_ptr_inplaceINSt13__future_base15_Deferred_stateISt12_Bind_simpleIFZ8mmap_mapRKN3Nan20FunctionCallbackInfoIN2v85ValueEEEE3$_0vEEvEESaISD_ELN9__gnu_cxx12_Lock_policyE2EE6_M_ptrEv,@function
_ZNSt23_Sp_counted_ptr_inplaceINSt13__future_base15_Deferred_stateISt12_Bind_simpleIFZ8mmap_mapRKN3Nan20FunctionCallbackInfoIN2v85ValueEEEE3$_0vEEvEESaISD_ELN9__gnu_cxx12_Lock_policyE2EE6_M_ptrEv: # @"_ZNSt23_Sp_counted_ptr_inplaceINSt13__future_base15_Deferred_stateISt12_Bind_simpleIFZ8mmap_mapRKN3Nan20FunctionCallbackInfoIN2v85ValueEEEE3$_0vEEvEESaISD_ELN9__gnu_cxx12_Lock_policyE2EE6_M_ptrEv"
	.cfi_startproc
# BB#0:
	pushq	%rbp
.Ltmp582:
	.cfi_def_cfa_offset 16
.Ltmp583:
	.cfi_offset %rbp, -16
	movq	%rsp, %rbp
.Ltmp584:
	.cfi_def_cfa_register %rbp
	subq	$16, %rsp
	movq	%rdi, -8(%rbp)
	movq	-8(%rbp), %rdi
	addq	$16, %rdi
	callq	_ZN9__gnu_cxx16__aligned_bufferINSt13__future_base15_Deferred_stateISt12_Bind_simpleIFZ8mmap_mapRKN3Nan20FunctionCallbackInfoIN2v85ValueEEEE3$_0vEEvEEE6_M_ptrEv
	addq	$16, %rsp
	popq	%rbp
	retq
.Ltmp585:
	.size	_ZNSt23_Sp_counted_ptr_inplaceINSt13__future_base15_Deferred_stateISt12_Bind_simpleIFZ8mmap_mapRKN3Nan20FunctionCallbackInfoIN2v85ValueEEEE3$_0vEEvEESaISD_ELN9__gnu_cxx12_Lock_policyE2EE6_M_ptrEv, .Ltmp585-_ZNSt23_Sp_counted_ptr_inplaceINSt13__future_base15_Deferred_stateISt12_Bind_simpleIFZ8mmap_mapRKN3Nan20FunctionCallbackInfoIN2v85ValueEEEE3$_0vEEvEESaISD_ELN9__gnu_cxx12_Lock_policyE2EE6_M_ptrEv
	.cfi_endproc

	.align	16, 0x90
	.type	_ZNSt23_Sp_counted_ptr_inplaceINSt13__future_base15_Deferred_stateISt12_Bind_simpleIFZ8mmap_mapRKN3Nan20FunctionCallbackInfoIN2v85ValueEEEE3$_0vEEvEESaISD_ELN9__gnu_cxx12_Lock_policyE2EE5_ImplD2Ev,@function
_ZNSt23_Sp_counted_ptr_inplaceINSt13__future_base15_Deferred_stateISt12_Bind_simpleIFZ8mmap_mapRKN3Nan20FunctionCallbackInfoIN2v85ValueEEEE3$_0vEEvEESaISD_ELN9__gnu_cxx12_Lock_policyE2EE5_ImplD2Ev: # @"_ZNSt23_Sp_counted_ptr_inplaceINSt13__future_base15_Deferred_stateISt12_Bind_simpleIFZ8mmap_mapRKN3Nan20FunctionCallbackInfoIN2v85ValueEEEE3$_0vEEvEESaISD_ELN9__gnu_cxx12_Lock_policyE2EE5_ImplD2Ev"
	.cfi_startproc
# BB#0:
	pushq	%rbp
.Ltmp586:
	.cfi_def_cfa_offset 16
.Ltmp587:
	.cfi_offset %rbp, -16
	movq	%rsp, %rbp
.Ltmp588:
	.cfi_def_cfa_register %rbp
	subq	$16, %rsp
	movq	%rdi, -8(%rbp)
	movq	-8(%rbp), %rdi
	callq	_ZNSt14_Sp_ebo_helperILi0ESaINSt13__future_base15_Deferred_stateISt12_Bind_simpleIFZ8mmap_mapRKN3Nan20FunctionCallbackInfoIN2v85ValueEEEE3$_0vEEvEEELb1EED2Ev
	addq	$16, %rsp
	popq	%rbp
	retq
.Ltmp589:
	.size	_ZNSt23_Sp_counted_ptr_inplaceINSt13__future_base15_Deferred_stateISt12_Bind_simpleIFZ8mmap_mapRKN3Nan20FunctionCallbackInfoIN2v85ValueEEEE3$_0vEEvEESaISD_ELN9__gnu_cxx12_Lock_policyE2EE5_ImplD2Ev, .Ltmp589-_ZNSt23_Sp_counted_ptr_inplaceINSt13__future_base15_Deferred_stateISt12_Bind_simpleIFZ8mmap_mapRKN3Nan20FunctionCallbackInfoIN2v85ValueEEEE3$_0vEEvEESaISD_ELN9__gnu_cxx12_Lock_policyE2EE5_ImplD2Ev
	.cfi_endproc

	.align	16, 0x90
	.type	_ZNSt23_Sp_counted_ptr_inplaceINSt13__future_base15_Deferred_stateISt12_Bind_simpleIFZ8mmap_mapRKN3Nan20FunctionCallbackInfoIN2v85ValueEEEE3$_0vEEvEESaISD_ELN9__gnu_cxx12_Lock_policyE2EED2Ev,@function
_ZNSt23_Sp_counted_ptr_inplaceINSt13__future_base15_Deferred_stateISt12_Bind_simpleIFZ8mmap_mapRKN3Nan20FunctionCallbackInfoIN2v85ValueEEEE3$_0vEEvEESaISD_ELN9__gnu_cxx12_Lock_policyE2EED2Ev: # @"_ZNSt23_Sp_counted_ptr_inplaceINSt13__future_base15_Deferred_stateISt12_Bind_simpleIFZ8mmap_mapRKN3Nan20FunctionCallbackInfoIN2v85ValueEEEE3$_0vEEvEESaISD_ELN9__gnu_cxx12_Lock_policyE2EED2Ev"
	.cfi_startproc
# BB#0:
	pushq	%rbp
.Ltmp590:
	.cfi_def_cfa_offset 16
.Ltmp591:
	.cfi_offset %rbp, -16
	movq	%rsp, %rbp
.Ltmp592:
	.cfi_def_cfa_register %rbp
	subq	$16, %rsp
	movq	%rdi, -8(%rbp)
	movq	-8(%rbp), %rdi
	movq	%rdi, %rax
	addq	$16, %rax
	movq	%rdi, -16(%rbp)         # 8-byte Spill
	movq	%rax, %rdi
	callq	_ZNSt23_Sp_counted_ptr_inplaceINSt13__future_base15_Deferred_stateISt12_Bind_simpleIFZ8mmap_mapRKN3Nan20FunctionCallbackInfoIN2v85ValueEEEE3$_0vEEvEESaISD_ELN9__gnu_cxx12_Lock_policyE2EE5_ImplD2Ev
	movq	-16(%rbp), %rax         # 8-byte Reload
	movq	%rax, %rdi
	callq	_ZNSt16_Sp_counted_baseILN9__gnu_cxx12_Lock_policyE2EED2Ev
	addq	$16, %rsp
	popq	%rbp
	retq
.Ltmp593:
	.size	_ZNSt23_Sp_counted_ptr_inplaceINSt13__future_base15_Deferred_stateISt12_Bind_simpleIFZ8mmap_mapRKN3Nan20FunctionCallbackInfoIN2v85ValueEEEE3$_0vEEvEESaISD_ELN9__gnu_cxx12_Lock_policyE2EED2Ev, .Ltmp593-_ZNSt23_Sp_counted_ptr_inplaceINSt13__future_base15_Deferred_stateISt12_Bind_simpleIFZ8mmap_mapRKN3Nan20FunctionCallbackInfoIN2v85ValueEEEE3$_0vEEvEESaISD_ELN9__gnu_cxx12_Lock_policyE2EED2Ev
	.cfi_endproc

	.align	16, 0x90
	.type	_ZNSt23_Sp_counted_ptr_inplaceINSt13__future_base15_Deferred_stateISt12_Bind_simpleIFZ8mmap_mapRKN3Nan20FunctionCallbackInfoIN2v85ValueEEEE3$_0vEEvEESaISD_ELN9__gnu_cxx12_Lock_policyE2EED0Ev,@function
_ZNSt23_Sp_counted_ptr_inplaceINSt13__future_base15_Deferred_stateISt12_Bind_simpleIFZ8mmap_mapRKN3Nan20FunctionCallbackInfoIN2v85ValueEEEE3$_0vEEvEESaISD_ELN9__gnu_cxx12_Lock_policyE2EED0Ev: # @"_ZNSt23_Sp_counted_ptr_inplaceINSt13__future_base15_Deferred_stateISt12_Bind_simpleIFZ8mmap_mapRKN3Nan20FunctionCallbackInfoIN2v85ValueEEEE3$_0vEEvEESaISD_ELN9__gnu_cxx12_Lock_policyE2EED0Ev"
	.cfi_startproc
# BB#0:
	pushq	%rbp
.Ltmp594:
	.cfi_def_cfa_offset 16
.Ltmp595:
	.cfi_offset %rbp, -16
	movq	%rsp, %rbp
.Ltmp596:
	.cfi_def_cfa_register %rbp
	subq	$16, %rsp
	movq	%rdi, -8(%rbp)
	movq	-8(%rbp), %rdi
	movq	%rdi, -16(%rbp)         # 8-byte Spill
	callq	_ZNSt23_Sp_counted_ptr_inplaceINSt13__future_base15_Deferred_stateISt12_Bind_simpleIFZ8mmap_mapRKN3Nan20FunctionCallbackInfoIN2v85ValueEEEE3$_0vEEvEESaISD_ELN9__gnu_cxx12_Lock_policyE2EED2Ev
	movq	-16(%rbp), %rdi         # 8-byte Reload
	callq	_ZdlPv
	addq	$16, %rsp
	popq	%rbp
	retq
.Ltmp597:
	.size	_ZNSt23_Sp_counted_ptr_inplaceINSt13__future_base15_Deferred_stateISt12_Bind_simpleIFZ8mmap_mapRKN3Nan20FunctionCallbackInfoIN2v85ValueEEEE3$_0vEEvEESaISD_ELN9__gnu_cxx12_Lock_policyE2EED0Ev, .Ltmp597-_ZNSt23_Sp_counted_ptr_inplaceINSt13__future_base15_Deferred_stateISt12_Bind_simpleIFZ8mmap_mapRKN3Nan20FunctionCallbackInfoIN2v85ValueEEEE3$_0vEEvEESaISD_ELN9__gnu_cxx12_Lock_policyE2EED0Ev
	.cfi_endproc

	.align	16, 0x90
	.type	_ZNSt23_Sp_counted_ptr_inplaceINSt13__future_base15_Deferred_stateISt12_Bind_simpleIFZ8mmap_mapRKN3Nan20FunctionCallbackInfoIN2v85ValueEEEE3$_0vEEvEESaISD_ELN9__gnu_cxx12_Lock_policyE2EE10_M_disposeEv,@function
_ZNSt23_Sp_counted_ptr_inplaceINSt13__future_base15_Deferred_stateISt12_Bind_simpleIFZ8mmap_mapRKN3Nan20FunctionCallbackInfoIN2v85ValueEEEE3$_0vEEvEESaISD_ELN9__gnu_cxx12_Lock_policyE2EE10_M_disposeEv: # @"_ZNSt23_Sp_counted_ptr_inplaceINSt13__future_base15_Deferred_stateISt12_Bind_simpleIFZ8mmap_mapRKN3Nan20FunctionCallbackInfoIN2v85ValueEEEE3$_0vEEvEESaISD_ELN9__gnu_cxx12_Lock_policyE2EE10_M_disposeEv"
	.cfi_startproc
	.cfi_personality 3, __gxx_personality_v0
.Leh_func_begin94:
	.cfi_lsda 3, .Lexception94
# BB#0:
	pushq	%rbp
.Ltmp601:
	.cfi_def_cfa_offset 16
.Ltmp602:
	.cfi_offset %rbp, -16
	movq	%rsp, %rbp
.Ltmp603:
	.cfi_def_cfa_register %rbp
	subq	$32, %rsp
	movq	%rdi, -8(%rbp)
	movq	%rdi, %rax
	addq	$16, %rax
	movq	%rdi, -16(%rbp)         # 8-byte Spill
	movq	%rax, %rdi
	callq	_ZNSt23_Sp_counted_ptr_inplaceINSt13__future_base15_Deferred_stateISt12_Bind_simpleIFZ8mmap_mapRKN3Nan20FunctionCallbackInfoIN2v85ValueEEEE3$_0vEEvEESaISD_ELN9__gnu_cxx12_Lock_policyE2EE5_Impl8_M_allocEv
	movq	-16(%rbp), %rdi         # 8-byte Reload
	movq	%rax, -24(%rbp)         # 8-byte Spill
	callq	_ZNSt23_Sp_counted_ptr_inplaceINSt13__future_base15_Deferred_stateISt12_Bind_simpleIFZ8mmap_mapRKN3Nan20FunctionCallbackInfoIN2v85ValueEEEE3$_0vEEvEESaISD_ELN9__gnu_cxx12_Lock_policyE2EE6_M_ptrEv
.Ltmp598:
	movq	-24(%rbp), %rdi         # 8-byte Reload
	movq	%rax, %rsi
	callq	_ZNSt16allocator_traitsISaINSt13__future_base15_Deferred_stateISt12_Bind_simpleIFZ8mmap_mapRKN3Nan20FunctionCallbackInfoIN2v85ValueEEEE3$_0vEEvEEEE7destroyISD_EEvRSE_PT_
.Ltmp599:
	jmp	.LBB94_1
.LBB94_1:
	addq	$32, %rsp
	popq	%rbp
	retq
.LBB94_2:
.Ltmp600:
	movl	%edx, %ecx
	movq	%rax, %rdi
	movl	%ecx, -28(%rbp)         # 4-byte Spill
	callq	__clang_call_terminate
.Ltmp604:
	.size	_ZNSt23_Sp_counted_ptr_inplaceINSt13__future_base15_Deferred_stateISt12_Bind_simpleIFZ8mmap_mapRKN3Nan20FunctionCallbackInfoIN2v85ValueEEEE3$_0vEEvEESaISD_ELN9__gnu_cxx12_Lock_policyE2EE10_M_disposeEv, .Ltmp604-_ZNSt23_Sp_counted_ptr_inplaceINSt13__future_base15_Deferred_stateISt12_Bind_simpleIFZ8mmap_mapRKN3Nan20FunctionCallbackInfoIN2v85ValueEEEE3$_0vEEvEESaISD_ELN9__gnu_cxx12_Lock_policyE2EE10_M_disposeEv
	.cfi_endproc
.Leh_func_end94:
	.section	.gcc_except_table,"a",@progbits
	.align	4
GCC_except_table94:
.Lexception94:
	.byte	255                     # @LPStart Encoding = omit
	.byte	3                       # @TType Encoding = udata4
	.byte	21                      # @TType base offset
	.byte	3                       # Call site Encoding = udata4
	.byte	13                      # Call site table length
	.long	.Ltmp598-.Leh_func_begin94 # >> Call Site 1 <<
	.long	.Ltmp599-.Ltmp598       #   Call between .Ltmp598 and .Ltmp599
	.long	.Ltmp600-.Leh_func_begin94 #     jumps to .Ltmp600
	.byte	1                       #   On action: 1
	.byte	1                       # >> Action Record 1 <<
                                        #   Catch TypeInfo 1
	.byte	0                       #   No further actions
                                        # >> Catch TypeInfos <<
	.long	0                       # TypeInfo 1
	.align	4

	.text
	.align	16, 0x90
	.type	_ZNSt23_Sp_counted_ptr_inplaceINSt13__future_base15_Deferred_stateISt12_Bind_simpleIFZ8mmap_mapRKN3Nan20FunctionCallbackInfoIN2v85ValueEEEE3$_0vEEvEESaISD_ELN9__gnu_cxx12_Lock_policyE2EE10_M_destroyEv,@function
_ZNSt23_Sp_counted_ptr_inplaceINSt13__future_base15_Deferred_stateISt12_Bind_simpleIFZ8mmap_mapRKN3Nan20FunctionCallbackInfoIN2v85ValueEEEE3$_0vEEvEESaISD_ELN9__gnu_cxx12_Lock_policyE2EE10_M_destroyEv: # @"_ZNSt23_Sp_counted_ptr_inplaceINSt13__future_base15_Deferred_stateISt12_Bind_simpleIFZ8mmap_mapRKN3Nan20FunctionCallbackInfoIN2v85ValueEEEE3$_0vEEvEESaISD_ELN9__gnu_cxx12_Lock_policyE2EE10_M_destroyEv"
	.cfi_startproc
	.cfi_personality 3, __gxx_personality_v0
.Leh_func_begin95:
	.cfi_lsda 3, .Lexception95
# BB#0:
	pushq	%rbp
.Ltmp610:
	.cfi_def_cfa_offset 16
.Ltmp611:
	.cfi_offset %rbp, -16
	movq	%rsp, %rbp
.Ltmp612:
	.cfi_def_cfa_register %rbp
	subq	$64, %rsp
	movq	%rdi, -8(%rbp)
	movq	%rdi, %rax
	movq	%rdi, %rcx
	addq	$16, %rcx
	movq	%rdi, -40(%rbp)         # 8-byte Spill
	movq	%rcx, %rdi
	movq	%rax, -48(%rbp)         # 8-byte Spill
	callq	_ZNSt23_Sp_counted_ptr_inplaceINSt13__future_base15_Deferred_stateISt12_Bind_simpleIFZ8mmap_mapRKN3Nan20FunctionCallbackInfoIN2v85ValueEEEE3$_0vEEvEESaISD_ELN9__gnu_cxx12_Lock_policyE2EE5_Impl8_M_allocEv
	leaq	-16(%rbp), %rcx
	movq	%rcx, %rdi
	movq	%rax, %rsi
	movq	%rcx, -56(%rbp)         # 8-byte Spill
	callq	_ZNSaISt23_Sp_counted_ptr_inplaceINSt13__future_base15_Deferred_stateISt12_Bind_simpleIFZ8mmap_mapRKN3Nan20FunctionCallbackInfoIN2v85ValueEEEE3$_0vEEvEESaISD_ELN9__gnu_cxx12_Lock_policyE2EEEC2ISD_EERKSaIT_E
.Ltmp605:
	movq	-56(%rbp), %rdi         # 8-byte Reload
	movq	-40(%rbp), %rsi         # 8-byte Reload
	callq	_ZNSt16allocator_traitsISaISt23_Sp_counted_ptr_inplaceINSt13__future_base15_Deferred_stateISt12_Bind_simpleIFZ8mmap_mapRKN3Nan20FunctionCallbackInfoIN2v85ValueEEEE3$_0vEEvEESaISE_ELN9__gnu_cxx12_Lock_policyE2EEEE7destroyISI_EEvRSJ_PT_
.Ltmp606:
	jmp	.LBB95_1
.LBB95_1:
.Ltmp607:
	movl	$1, %eax
	movl	%eax, %edx
	leaq	-16(%rbp), %rdi
	movq	-48(%rbp), %rsi         # 8-byte Reload
	callq	_ZNSt16allocator_traitsISaISt23_Sp_counted_ptr_inplaceINSt13__future_base15_Deferred_stateISt12_Bind_simpleIFZ8mmap_mapRKN3Nan20FunctionCallbackInfoIN2v85ValueEEEE3$_0vEEvEESaISE_ELN9__gnu_cxx12_Lock_policyE2EEEE10deallocateERSJ_PSI_m
.Ltmp608:
	jmp	.LBB95_2
.LBB95_2:
	leaq	-16(%rbp), %rdi
	callq	_ZNSaISt23_Sp_counted_ptr_inplaceINSt13__future_base15_Deferred_stateISt12_Bind_simpleIFZ8mmap_mapRKN3Nan20FunctionCallbackInfoIN2v85ValueEEEE3$_0vEEvEESaISD_ELN9__gnu_cxx12_Lock_policyE2EEED2Ev
	addq	$64, %rsp
	popq	%rbp
	retq
.LBB95_3:
.Ltmp609:
	leaq	-16(%rbp), %rdi
	movl	%edx, %ecx
	movq	%rax, -24(%rbp)
	movl	%ecx, -28(%rbp)
	callq	_ZNSaISt23_Sp_counted_ptr_inplaceINSt13__future_base15_Deferred_stateISt12_Bind_simpleIFZ8mmap_mapRKN3Nan20FunctionCallbackInfoIN2v85ValueEEEE3$_0vEEvEESaISD_ELN9__gnu_cxx12_Lock_policyE2EEED2Ev
# BB#4:
	movq	-24(%rbp), %rdi
	callq	__clang_call_terminate
.Ltmp613:
	.size	_ZNSt23_Sp_counted_ptr_inplaceINSt13__future_base15_Deferred_stateISt12_Bind_simpleIFZ8mmap_mapRKN3Nan20FunctionCallbackInfoIN2v85ValueEEEE3$_0vEEvEESaISD_ELN9__gnu_cxx12_Lock_policyE2EE10_M_destroyEv, .Ltmp613-_ZNSt23_Sp_counted_ptr_inplaceINSt13__future_base15_Deferred_stateISt12_Bind_simpleIFZ8mmap_mapRKN3Nan20FunctionCallbackInfoIN2v85ValueEEEE3$_0vEEvEESaISD_ELN9__gnu_cxx12_Lock_policyE2EE10_M_destroyEv
	.cfi_endproc
.Leh_func_end95:
	.section	.gcc_except_table,"a",@progbits
	.align	4
GCC_except_table95:
.Lexception95:
	.byte	255                     # @LPStart Encoding = omit
	.byte	3                       # @TType Encoding = udata4
	.byte	21                      # @TType base offset
	.byte	3                       # Call site Encoding = udata4
	.byte	13                      # Call site table length
	.long	.Ltmp605-.Leh_func_begin95 # >> Call Site 1 <<
	.long	.Ltmp608-.Ltmp605       #   Call between .Ltmp605 and .Ltmp608
	.long	.Ltmp609-.Leh_func_begin95 #     jumps to .Ltmp609
	.byte	1                       #   On action: 1
	.byte	1                       # >> Action Record 1 <<
                                        #   Catch TypeInfo 1
	.byte	0                       #   No further actions
                                        # >> Catch TypeInfos <<
	.long	0                       # TypeInfo 1
	.align	4

	.text
	.align	16, 0x90
	.type	_ZNSt23_Sp_counted_ptr_inplaceINSt13__future_base15_Deferred_stateISt12_Bind_simpleIFZ8mmap_mapRKN3Nan20FunctionCallbackInfoIN2v85ValueEEEE3$_0vEEvEESaISD_ELN9__gnu_cxx12_Lock_policyE2EE14_M_get_deleterERKSt9type_info,@function
_ZNSt23_Sp_counted_ptr_inplaceINSt13__future_base15_Deferred_stateISt12_Bind_simpleIFZ8mmap_mapRKN3Nan20FunctionCallbackInfoIN2v85ValueEEEE3$_0vEEvEESaISD_ELN9__gnu_cxx12_Lock_policyE2EE14_M_get_deleterERKSt9type_info: # @"_ZNSt23_Sp_counted_ptr_inplaceINSt13__future_base15_Deferred_stateISt12_Bind_simpleIFZ8mmap_mapRKN3Nan20FunctionCallbackInfoIN2v85ValueEEEE3$_0vEEvEESaISD_ELN9__gnu_cxx12_Lock_policyE2EE14_M_get_deleterERKSt9type_info"
	.cfi_startproc
# BB#0:
	pushq	%rbp
.Ltmp614:
	.cfi_def_cfa_offset 16
.Ltmp615:
	.cfi_offset %rbp, -16
	movq	%rsp, %rbp
.Ltmp616:
	.cfi_def_cfa_register %rbp
	subq	$32, %rsp
	movabsq	$_ZTISt19_Sp_make_shared_tag, %rax
	movq	%rdi, -16(%rbp)
	movq	%rsi, -24(%rbp)
	movq	-16(%rbp), %rdi
	movq	-24(%rbp), %rsi
	movq	%rdi, -32(%rbp)         # 8-byte Spill
	movq	%rsi, %rdi
	movq	%rax, %rsi
	callq	_ZNKSt9type_infoeqERKS_
	testb	$1, %al
	jne	.LBB96_1
	jmp	.LBB96_2
.LBB96_1:
	movq	-32(%rbp), %rdi         # 8-byte Reload
	callq	_ZNSt23_Sp_counted_ptr_inplaceINSt13__future_base15_Deferred_stateISt12_Bind_simpleIFZ8mmap_mapRKN3Nan20FunctionCallbackInfoIN2v85ValueEEEE3$_0vEEvEESaISD_ELN9__gnu_cxx12_Lock_policyE2EE6_M_ptrEv
	movq	%rax, -8(%rbp)
	jmp	.LBB96_3
.LBB96_2:
	movq	$0, -8(%rbp)
.LBB96_3:
	movq	-8(%rbp), %rax
	addq	$32, %rsp
	popq	%rbp
	retq
.Ltmp617:
	.size	_ZNSt23_Sp_counted_ptr_inplaceINSt13__future_base15_Deferred_stateISt12_Bind_simpleIFZ8mmap_mapRKN3Nan20FunctionCallbackInfoIN2v85ValueEEEE3$_0vEEvEESaISD_ELN9__gnu_cxx12_Lock_policyE2EE14_M_get_deleterERKSt9type_info, .Ltmp617-_ZNSt23_Sp_counted_ptr_inplaceINSt13__future_base15_Deferred_stateISt12_Bind_simpleIFZ8mmap_mapRKN3Nan20FunctionCallbackInfoIN2v85ValueEEEE3$_0vEEvEESaISD_ELN9__gnu_cxx12_Lock_policyE2EE14_M_get_deleterERKSt9type_info
	.cfi_endproc

	.section	.text._ZNKSt9type_infoeqERKS_,"axG",@progbits,_ZNKSt9type_infoeqERKS_,comdat
	.weak	_ZNKSt9type_infoeqERKS_
	.align	16, 0x90
	.type	_ZNKSt9type_infoeqERKS_,@function
_ZNKSt9type_infoeqERKS_:                # @_ZNKSt9type_infoeqERKS_
	.cfi_startproc
# BB#0:
	pushq	%rbp
.Ltmp618:
	.cfi_def_cfa_offset 16
.Ltmp619:
	.cfi_offset %rbp, -16
	movq	%rsp, %rbp
.Ltmp620:
	.cfi_def_cfa_register %rbp
	subq	$32, %rsp
	movb	$1, %al
	movq	%rdi, -8(%rbp)
	movq	%rsi, -16(%rbp)
	movq	-8(%rbp), %rsi
	movq	8(%rsi), %rdi
	movq	-16(%rbp), %rcx
	cmpq	8(%rcx), %rdi
	movq	%rsi, -24(%rbp)         # 8-byte Spill
	movb	%al, -25(%rbp)          # 1-byte Spill
	je	.LBB97_4
# BB#1:
	xorl	%eax, %eax
	movb	%al, %cl
	movq	-24(%rbp), %rdx         # 8-byte Reload
	movq	8(%rdx), %rsi
	movsbl	(%rsi), %eax
	cmpl	$42, %eax
	movb	%cl, -26(%rbp)          # 1-byte Spill
	je	.LBB97_3
# BB#2:
	movq	-24(%rbp), %rax         # 8-byte Reload
	movq	8(%rax), %rdi
	movq	-16(%rbp), %rcx
	movq	8(%rcx), %rsi
	callq	strcmp
	cmpl	$0, %eax
	sete	%dl
	movb	%dl, -26(%rbp)          # 1-byte Spill
.LBB97_3:
	movb	-26(%rbp), %al          # 1-byte Reload
	movb	%al, -25(%rbp)          # 1-byte Spill
.LBB97_4:
	movb	-25(%rbp), %al          # 1-byte Reload
	andb	$1, %al
	movzbl	%al, %eax
	addq	$32, %rsp
	popq	%rbp
	retq
.Ltmp621:
	.size	_ZNKSt9type_infoeqERKS_, .Ltmp621-_ZNKSt9type_infoeqERKS_
	.cfi_endproc

	.text
	.align	16, 0x90
	.type	_ZNSt23_Sp_counted_ptr_inplaceINSt13__future_base15_Deferred_stateISt12_Bind_simpleIFZ8mmap_mapRKN3Nan20FunctionCallbackInfoIN2v85ValueEEEE3$_0vEEvEESaISD_ELN9__gnu_cxx12_Lock_policyE2EE5_Impl8_M_allocEv,@function
_ZNSt23_Sp_counted_ptr_inplaceINSt13__future_base15_Deferred_stateISt12_Bind_simpleIFZ8mmap_mapRKN3Nan20FunctionCallbackInfoIN2v85ValueEEEE3$_0vEEvEESaISD_ELN9__gnu_cxx12_Lock_policyE2EE5_Impl8_M_allocEv: # @"_ZNSt23_Sp_counted_ptr_inplaceINSt13__future_base15_Deferred_stateISt12_Bind_simpleIFZ8mmap_mapRKN3Nan20FunctionCallbackInfoIN2v85ValueEEEE3$_0vEEvEESaISD_ELN9__gnu_cxx12_Lock_policyE2EE5_Impl8_M_allocEv"
	.cfi_startproc
	.cfi_personality 3, __gxx_personality_v0
.Leh_func_begin98:
	.cfi_lsda 3, .Lexception98
# BB#0:
	pushq	%rbp
.Ltmp625:
	.cfi_def_cfa_offset 16
.Ltmp626:
	.cfi_offset %rbp, -16
	movq	%rsp, %rbp
.Ltmp627:
	.cfi_def_cfa_register %rbp
	subq	$32, %rsp
	movq	%rdi, -8(%rbp)
.Ltmp622:
	callq	_ZNSt14_Sp_ebo_helperILi0ESaINSt13__future_base15_Deferred_stateISt12_Bind_simpleIFZ8mmap_mapRKN3Nan20FunctionCallbackInfoIN2v85ValueEEEE3$_0vEEvEEELb1EE6_S_getERSF_
.Ltmp623:
	movq	%rax, -16(%rbp)         # 8-byte Spill
	jmp	.LBB98_1
.LBB98_1:
	movq	-16(%rbp), %rax         # 8-byte Reload
	addq	$32, %rsp
	popq	%rbp
	retq
.LBB98_2:
.Ltmp624:
	movl	%edx, %ecx
	movq	%rax, %rdi
	movl	%ecx, -20(%rbp)         # 4-byte Spill
	callq	__clang_call_terminate
.Ltmp628:
	.size	_ZNSt23_Sp_counted_ptr_inplaceINSt13__future_base15_Deferred_stateISt12_Bind_simpleIFZ8mmap_mapRKN3Nan20FunctionCallbackInfoIN2v85ValueEEEE3$_0vEEvEESaISD_ELN9__gnu_cxx12_Lock_policyE2EE5_Impl8_M_allocEv, .Ltmp628-_ZNSt23_Sp_counted_ptr_inplaceINSt13__future_base15_Deferred_stateISt12_Bind_simpleIFZ8mmap_mapRKN3Nan20FunctionCallbackInfoIN2v85ValueEEEE3$_0vEEvEESaISD_ELN9__gnu_cxx12_Lock_policyE2EE5_Impl8_M_allocEv
	.cfi_endproc
.Leh_func_end98:
	.section	.gcc_except_table,"a",@progbits
	.align	4
GCC_except_table98:
.Lexception98:
	.byte	255                     # @LPStart Encoding = omit
	.byte	3                       # @TType Encoding = udata4
	.byte	21                      # @TType base offset
	.byte	3                       # Call site Encoding = udata4
	.byte	13                      # Call site table length
	.long	.Ltmp622-.Leh_func_begin98 # >> Call Site 1 <<
	.long	.Ltmp623-.Ltmp622       #   Call between .Ltmp622 and .Ltmp623
	.long	.Ltmp624-.Leh_func_begin98 #     jumps to .Ltmp624
	.byte	1                       #   On action: 1
	.byte	1                       # >> Action Record 1 <<
                                        #   Catch TypeInfo 1
	.byte	0                       #   No further actions
                                        # >> Catch TypeInfos <<
	.long	0                       # TypeInfo 1
	.align	4

	.text
	.align	16, 0x90
	.type	_ZNSt16allocator_traitsISaISt23_Sp_counted_ptr_inplaceINSt13__future_base15_Deferred_stateISt12_Bind_simpleIFZ8mmap_mapRKN3Nan20FunctionCallbackInfoIN2v85ValueEEEE3$_0vEEvEESaISE_ELN9__gnu_cxx12_Lock_policyE2EEEE7destroyISI_EEvRSJ_PT_,@function
_ZNSt16allocator_traitsISaISt23_Sp_counted_ptr_inplaceINSt13__future_base15_Deferred_stateISt12_Bind_simpleIFZ8mmap_mapRKN3Nan20FunctionCallbackInfoIN2v85ValueEEEE3$_0vEEvEESaISE_ELN9__gnu_cxx12_Lock_policyE2EEEE7destroyISI_EEvRSJ_PT_: # @"_ZNSt16allocator_traitsISaISt23_Sp_counted_ptr_inplaceINSt13__future_base15_Deferred_stateISt12_Bind_simpleIFZ8mmap_mapRKN3Nan20FunctionCallbackInfoIN2v85ValueEEEE3$_0vEEvEESaISE_ELN9__gnu_cxx12_Lock_policyE2EEEE7destroyISI_EEvRSJ_PT_"
	.cfi_startproc
# BB#0:
	pushq	%rbp
.Ltmp629:
	.cfi_def_cfa_offset 16
.Ltmp630:
	.cfi_offset %rbp, -16
	movq	%rsp, %rbp
.Ltmp631:
	.cfi_def_cfa_register %rbp
	subq	$16, %rsp
	movq	%rdi, -8(%rbp)
	movq	%rsi, -16(%rbp)
	movq	-8(%rbp), %rdi
	movq	-16(%rbp), %rsi
	callq	_ZNSt16allocator_traitsISaISt23_Sp_counted_ptr_inplaceINSt13__future_base15_Deferred_stateISt12_Bind_simpleIFZ8mmap_mapRKN3Nan20FunctionCallbackInfoIN2v85ValueEEEE3$_0vEEvEESaISE_ELN9__gnu_cxx12_Lock_policyE2EEEE10_S_destroyISI_EENSt9enable_ifIXsr6__and_INSK_16__destroy_helperIT_E4typeEEE5valueEvE4typeERSJ_PSO_
	addq	$16, %rsp
	popq	%rbp
	retq
.Ltmp632:
	.size	_ZNSt16allocator_traitsISaISt23_Sp_counted_ptr_inplaceINSt13__future_base15_Deferred_stateISt12_Bind_simpleIFZ8mmap_mapRKN3Nan20FunctionCallbackInfoIN2v85ValueEEEE3$_0vEEvEESaISE_ELN9__gnu_cxx12_Lock_policyE2EEEE7destroyISI_EEvRSJ_PT_, .Ltmp632-_ZNSt16allocator_traitsISaISt23_Sp_counted_ptr_inplaceINSt13__future_base15_Deferred_stateISt12_Bind_simpleIFZ8mmap_mapRKN3Nan20FunctionCallbackInfoIN2v85ValueEEEE3$_0vEEvEESaISE_ELN9__gnu_cxx12_Lock_policyE2EEEE7destroyISI_EEvRSJ_PT_
	.cfi_endproc

	.align	16, 0x90
	.type	_ZNSt16allocator_traitsISaISt23_Sp_counted_ptr_inplaceINSt13__future_base15_Deferred_stateISt12_Bind_simpleIFZ8mmap_mapRKN3Nan20FunctionCallbackInfoIN2v85ValueEEEE3$_0vEEvEESaISE_ELN9__gnu_cxx12_Lock_policyE2EEEE10_S_destroyISI_EENSt9enable_ifIXsr6__and_INSK_16__destroy_helperIT_E4typeEEE5valueEvE4typeERSJ_PSO_,@function
_ZNSt16allocator_traitsISaISt23_Sp_counted_ptr_inplaceINSt13__future_base15_Deferred_stateISt12_Bind_simpleIFZ8mmap_mapRKN3Nan20FunctionCallbackInfoIN2v85ValueEEEE3$_0vEEvEESaISE_ELN9__gnu_cxx12_Lock_policyE2EEEE10_S_destroyISI_EENSt9enable_ifIXsr6__and_INSK_16__destroy_helperIT_E4typeEEE5valueEvE4typeERSJ_PSO_: # @"_ZNSt16allocator_traitsISaISt23_Sp_counted_ptr_inplaceINSt13__future_base15_Deferred_stateISt12_Bind_simpleIFZ8mmap_mapRKN3Nan20FunctionCallbackInfoIN2v85ValueEEEE3$_0vEEvEESaISE_ELN9__gnu_cxx12_Lock_policyE2EEEE10_S_destroyISI_EENSt9enable_ifIXsr6__and_INSK_16__destroy_helperIT_E4typeEEE5valueEvE4typeERSJ_PSO_"
	.cfi_startproc
# BB#0:
	pushq	%rbp
.Ltmp633:
	.cfi_def_cfa_offset 16
.Ltmp634:
	.cfi_offset %rbp, -16
	movq	%rsp, %rbp
.Ltmp635:
	.cfi_def_cfa_register %rbp
	subq	$32, %rsp
	movq	%rdi, -8(%rbp)
	movq	%rsi, -16(%rbp)
	movq	-8(%rbp), %rsi
	movq	-16(%rbp), %rdi
	movq	%rdi, -24(%rbp)         # 8-byte Spill
	movq	%rsi, %rdi
	movq	-24(%rbp), %rsi         # 8-byte Reload
	callq	_ZN9__gnu_cxx13new_allocatorISt23_Sp_counted_ptr_inplaceINSt13__future_base15_Deferred_stateISt12_Bind_simpleIFZ8mmap_mapRKN3Nan20FunctionCallbackInfoIN2v85ValueEEEE3$_0vEEvEESaISF_ELNS_12_Lock_policyE2EEE7destroyISI_EEvPT_
	addq	$32, %rsp
	popq	%rbp
	retq
.Ltmp636:
	.size	_ZNSt16allocator_traitsISaISt23_Sp_counted_ptr_inplaceINSt13__future_base15_Deferred_stateISt12_Bind_simpleIFZ8mmap_mapRKN3Nan20FunctionCallbackInfoIN2v85ValueEEEE3$_0vEEvEESaISE_ELN9__gnu_cxx12_Lock_policyE2EEEE10_S_destroyISI_EENSt9enable_ifIXsr6__and_INSK_16__destroy_helperIT_E4typeEEE5valueEvE4typeERSJ_PSO_, .Ltmp636-_ZNSt16allocator_traitsISaISt23_Sp_counted_ptr_inplaceINSt13__future_base15_Deferred_stateISt12_Bind_simpleIFZ8mmap_mapRKN3Nan20FunctionCallbackInfoIN2v85ValueEEEE3$_0vEEvEESaISE_ELN9__gnu_cxx12_Lock_policyE2EEEE10_S_destroyISI_EENSt9enable_ifIXsr6__and_INSK_16__destroy_helperIT_E4typeEEE5valueEvE4typeERSJ_PSO_
	.cfi_endproc

	.align	16, 0x90
	.type	_ZN9__gnu_cxx13new_allocatorISt23_Sp_counted_ptr_inplaceINSt13__future_base15_Deferred_stateISt12_Bind_simpleIFZ8mmap_mapRKN3Nan20FunctionCallbackInfoIN2v85ValueEEEE3$_0vEEvEESaISF_ELNS_12_Lock_policyE2EEE7destroyISI_EEvPT_,@function
_ZN9__gnu_cxx13new_allocatorISt23_Sp_counted_ptr_inplaceINSt13__future_base15_Deferred_stateISt12_Bind_simpleIFZ8mmap_mapRKN3Nan20FunctionCallbackInfoIN2v85ValueEEEE3$_0vEEvEESaISF_ELNS_12_Lock_policyE2EEE7destroyISI_EEvPT_: # @"_ZN9__gnu_cxx13new_allocatorISt23_Sp_counted_ptr_inplaceINSt13__future_base15_Deferred_stateISt12_Bind_simpleIFZ8mmap_mapRKN3Nan20FunctionCallbackInfoIN2v85ValueEEEE3$_0vEEvEESaISF_ELNS_12_Lock_policyE2EEE7destroyISI_EEvPT_"
	.cfi_startproc
# BB#0:
	pushq	%rbp
.Ltmp637:
	.cfi_def_cfa_offset 16
.Ltmp638:
	.cfi_offset %rbp, -16
	movq	%rsp, %rbp
.Ltmp639:
	.cfi_def_cfa_register %rbp
	subq	$16, %rsp
	movq	%rdi, -8(%rbp)
	movq	%rsi, -16(%rbp)
	movq	-16(%rbp), %rdi
	callq	_ZNSt23_Sp_counted_ptr_inplaceINSt13__future_base15_Deferred_stateISt12_Bind_simpleIFZ8mmap_mapRKN3Nan20FunctionCallbackInfoIN2v85ValueEEEE3$_0vEEvEESaISD_ELN9__gnu_cxx12_Lock_policyE2EED2Ev
	addq	$16, %rsp
	popq	%rbp
	retq
.Ltmp640:
	.size	_ZN9__gnu_cxx13new_allocatorISt23_Sp_counted_ptr_inplaceINSt13__future_base15_Deferred_stateISt12_Bind_simpleIFZ8mmap_mapRKN3Nan20FunctionCallbackInfoIN2v85ValueEEEE3$_0vEEvEESaISF_ELNS_12_Lock_policyE2EEE7destroyISI_EEvPT_, .Ltmp640-_ZN9__gnu_cxx13new_allocatorISt23_Sp_counted_ptr_inplaceINSt13__future_base15_Deferred_stateISt12_Bind_simpleIFZ8mmap_mapRKN3Nan20FunctionCallbackInfoIN2v85ValueEEEE3$_0vEEvEESaISF_ELNS_12_Lock_policyE2EEE7destroyISI_EEvPT_
	.cfi_endproc

	.align	16, 0x90
	.type	_ZNSt14_Sp_ebo_helperILi0ESaINSt13__future_base15_Deferred_stateISt12_Bind_simpleIFZ8mmap_mapRKN3Nan20FunctionCallbackInfoIN2v85ValueEEEE3$_0vEEvEEELb1EE6_S_getERSF_,@function
_ZNSt14_Sp_ebo_helperILi0ESaINSt13__future_base15_Deferred_stateISt12_Bind_simpleIFZ8mmap_mapRKN3Nan20FunctionCallbackInfoIN2v85ValueEEEE3$_0vEEvEEELb1EE6_S_getERSF_: # @"_ZNSt14_Sp_ebo_helperILi0ESaINSt13__future_base15_Deferred_stateISt12_Bind_simpleIFZ8mmap_mapRKN3Nan20FunctionCallbackInfoIN2v85ValueEEEE3$_0vEEvEEELb1EE6_S_getERSF_"
	.cfi_startproc
# BB#0:
	pushq	%rbp
.Ltmp641:
	.cfi_def_cfa_offset 16
.Ltmp642:
	.cfi_offset %rbp, -16
	movq	%rsp, %rbp
.Ltmp643:
	.cfi_def_cfa_register %rbp
	movq	%rdi, -8(%rbp)
	movq	-8(%rbp), %rdi
	movq	%rdi, %rax
	popq	%rbp
	retq
.Ltmp644:
	.size	_ZNSt14_Sp_ebo_helperILi0ESaINSt13__future_base15_Deferred_stateISt12_Bind_simpleIFZ8mmap_mapRKN3Nan20FunctionCallbackInfoIN2v85ValueEEEE3$_0vEEvEEELb1EE6_S_getERSF_, .Ltmp644-_ZNSt14_Sp_ebo_helperILi0ESaINSt13__future_base15_Deferred_stateISt12_Bind_simpleIFZ8mmap_mapRKN3Nan20FunctionCallbackInfoIN2v85ValueEEEE3$_0vEEvEEELb1EE6_S_getERSF_
	.cfi_endproc

	.align	16, 0x90
	.type	_ZNSt16allocator_traitsISaINSt13__future_base15_Deferred_stateISt12_Bind_simpleIFZ8mmap_mapRKN3Nan20FunctionCallbackInfoIN2v85ValueEEEE3$_0vEEvEEEE7destroyISD_EEvRSE_PT_,@function
_ZNSt16allocator_traitsISaINSt13__future_base15_Deferred_stateISt12_Bind_simpleIFZ8mmap_mapRKN3Nan20FunctionCallbackInfoIN2v85ValueEEEE3$_0vEEvEEEE7destroyISD_EEvRSE_PT_: # @"_ZNSt16allocator_traitsISaINSt13__future_base15_Deferred_stateISt12_Bind_simpleIFZ8mmap_mapRKN3Nan20FunctionCallbackInfoIN2v85ValueEEEE3$_0vEEvEEEE7destroyISD_EEvRSE_PT_"
	.cfi_startproc
# BB#0:
	pushq	%rbp
.Ltmp645:
	.cfi_def_cfa_offset 16
.Ltmp646:
	.cfi_offset %rbp, -16
	movq	%rsp, %rbp
.Ltmp647:
	.cfi_def_cfa_register %rbp
	subq	$16, %rsp
	movq	%rdi, -8(%rbp)
	movq	%rsi, -16(%rbp)
	movq	-8(%rbp), %rdi
	movq	-16(%rbp), %rsi
	callq	_ZNSt16allocator_traitsISaINSt13__future_base15_Deferred_stateISt12_Bind_simpleIFZ8mmap_mapRKN3Nan20FunctionCallbackInfoIN2v85ValueEEEE3$_0vEEvEEEE10_S_destroyISD_EENSt9enable_ifIXsr6__and_INSF_16__destroy_helperIT_E4typeEEE5valueEvE4typeERSE_PSJ_
	addq	$16, %rsp
	popq	%rbp
	retq
.Ltmp648:
	.size	_ZNSt16allocator_traitsISaINSt13__future_base15_Deferred_stateISt12_Bind_simpleIFZ8mmap_mapRKN3Nan20FunctionCallbackInfoIN2v85ValueEEEE3$_0vEEvEEEE7destroyISD_EEvRSE_PT_, .Ltmp648-_ZNSt16allocator_traitsISaINSt13__future_base15_Deferred_stateISt12_Bind_simpleIFZ8mmap_mapRKN3Nan20FunctionCallbackInfoIN2v85ValueEEEE3$_0vEEvEEEE7destroyISD_EEvRSE_PT_
	.cfi_endproc

	.align	16, 0x90
	.type	_ZNSt16allocator_traitsISaINSt13__future_base15_Deferred_stateISt12_Bind_simpleIFZ8mmap_mapRKN3Nan20FunctionCallbackInfoIN2v85ValueEEEE3$_0vEEvEEEE10_S_destroyISD_EENSt9enable_ifIXsr6__and_INSF_16__destroy_helperIT_E4typeEEE5valueEvE4typeERSE_PSJ_,@function
_ZNSt16allocator_traitsISaINSt13__future_base15_Deferred_stateISt12_Bind_simpleIFZ8mmap_mapRKN3Nan20FunctionCallbackInfoIN2v85ValueEEEE3$_0vEEvEEEE10_S_destroyISD_EENSt9enable_ifIXsr6__and_INSF_16__destroy_helperIT_E4typeEEE5valueEvE4typeERSE_PSJ_: # @"_ZNSt16allocator_traitsISaINSt13__future_base15_Deferred_stateISt12_Bind_simpleIFZ8mmap_mapRKN3Nan20FunctionCallbackInfoIN2v85ValueEEEE3$_0vEEvEEEE10_S_destroyISD_EENSt9enable_ifIXsr6__and_INSF_16__destroy_helperIT_E4typeEEE5valueEvE4typeERSE_PSJ_"
	.cfi_startproc
# BB#0:
	pushq	%rbp
.Ltmp649:
	.cfi_def_cfa_offset 16
.Ltmp650:
	.cfi_offset %rbp, -16
	movq	%rsp, %rbp
.Ltmp651:
	.cfi_def_cfa_register %rbp
	subq	$32, %rsp
	movq	%rdi, -8(%rbp)
	movq	%rsi, -16(%rbp)
	movq	-8(%rbp), %rsi
	movq	-16(%rbp), %rdi
	movq	%rdi, -24(%rbp)         # 8-byte Spill
	movq	%rsi, %rdi
	movq	-24(%rbp), %rsi         # 8-byte Reload
	callq	_ZN9__gnu_cxx13new_allocatorINSt13__future_base15_Deferred_stateISt12_Bind_simpleIFZ8mmap_mapRKN3Nan20FunctionCallbackInfoIN2v85ValueEEEE3$_0vEEvEEE7destroyISE_EEvPT_
	addq	$32, %rsp
	popq	%rbp
	retq
.Ltmp652:
	.size	_ZNSt16allocator_traitsISaINSt13__future_base15_Deferred_stateISt12_Bind_simpleIFZ8mmap_mapRKN3Nan20FunctionCallbackInfoIN2v85ValueEEEE3$_0vEEvEEEE10_S_destroyISD_EENSt9enable_ifIXsr6__and_INSF_16__destroy_helperIT_E4typeEEE5valueEvE4typeERSE_PSJ_, .Ltmp652-_ZNSt16allocator_traitsISaINSt13__future_base15_Deferred_stateISt12_Bind_simpleIFZ8mmap_mapRKN3Nan20FunctionCallbackInfoIN2v85ValueEEEE3$_0vEEvEEEE10_S_destroyISD_EENSt9enable_ifIXsr6__and_INSF_16__destroy_helperIT_E4typeEEE5valueEvE4typeERSE_PSJ_
	.cfi_endproc

	.align	16, 0x90
	.type	_ZN9__gnu_cxx13new_allocatorINSt13__future_base15_Deferred_stateISt12_Bind_simpleIFZ8mmap_mapRKN3Nan20FunctionCallbackInfoIN2v85ValueEEEE3$_0vEEvEEE7destroyISE_EEvPT_,@function
_ZN9__gnu_cxx13new_allocatorINSt13__future_base15_Deferred_stateISt12_Bind_simpleIFZ8mmap_mapRKN3Nan20FunctionCallbackInfoIN2v85ValueEEEE3$_0vEEvEEE7destroyISE_EEvPT_: # @"_ZN9__gnu_cxx13new_allocatorINSt13__future_base15_Deferred_stateISt12_Bind_simpleIFZ8mmap_mapRKN3Nan20FunctionCallbackInfoIN2v85ValueEEEE3$_0vEEvEEE7destroyISE_EEvPT_"
	.cfi_startproc
# BB#0:
	pushq	%rbp
.Ltmp653:
	.cfi_def_cfa_offset 16
.Ltmp654:
	.cfi_offset %rbp, -16
	movq	%rsp, %rbp
.Ltmp655:
	.cfi_def_cfa_register %rbp
	subq	$16, %rsp
	movq	%rdi, -8(%rbp)
	movq	%rsi, -16(%rbp)
	movq	-16(%rbp), %rdi
	callq	_ZNSt13__future_base15_Deferred_stateISt12_Bind_simpleIFZ8mmap_mapRKN3Nan20FunctionCallbackInfoIN2v85ValueEEEE3$_0vEEvED2Ev
	addq	$16, %rsp
	popq	%rbp
	retq
.Ltmp656:
	.size	_ZN9__gnu_cxx13new_allocatorINSt13__future_base15_Deferred_stateISt12_Bind_simpleIFZ8mmap_mapRKN3Nan20FunctionCallbackInfoIN2v85ValueEEEE3$_0vEEvEEE7destroyISE_EEvPT_, .Ltmp656-_ZN9__gnu_cxx13new_allocatorINSt13__future_base15_Deferred_stateISt12_Bind_simpleIFZ8mmap_mapRKN3Nan20FunctionCallbackInfoIN2v85ValueEEEE3$_0vEEvEEE7destroyISE_EEvPT_
	.cfi_endproc

	.align	16, 0x90
	.type	_ZNSt13__future_base15_Deferred_stateISt12_Bind_simpleIFZ8mmap_mapRKN3Nan20FunctionCallbackInfoIN2v85ValueEEEE3$_0vEEvED2Ev,@function
_ZNSt13__future_base15_Deferred_stateISt12_Bind_simpleIFZ8mmap_mapRKN3Nan20FunctionCallbackInfoIN2v85ValueEEEE3$_0vEEvED2Ev: # @"_ZNSt13__future_base15_Deferred_stateISt12_Bind_simpleIFZ8mmap_mapRKN3Nan20FunctionCallbackInfoIN2v85ValueEEEE3$_0vEEvED2Ev"
	.cfi_startproc
# BB#0:
	pushq	%rbp
.Ltmp657:
	.cfi_def_cfa_offset 16
.Ltmp658:
	.cfi_offset %rbp, -16
	movq	%rsp, %rbp
.Ltmp659:
	.cfi_def_cfa_register %rbp
	subq	$16, %rsp
	movabsq	$_ZTVNSt13__future_base15_Deferred_stateISt12_Bind_simpleIFZ8mmap_mapRKN3Nan20FunctionCallbackInfoIN2v85ValueEEEE3$_0vEEvEE, %rax
	addq	$16, %rax
	movq	%rdi, -8(%rbp)
	movq	-8(%rbp), %rdi
	movq	%rax, (%rdi)
	movq	%rdi, %rax
	addq	$112, %rax
	movq	%rdi, -16(%rbp)         # 8-byte Spill
	movq	%rax, %rdi
	callq	_ZNSt10unique_ptrINSt13__future_base7_ResultIvEENS0_12_Result_base8_DeleterEED2Ev
	movq	-16(%rbp), %rax         # 8-byte Reload
	movq	%rax, %rdi
	callq	_ZNSt13__future_base13_State_baseV2D2Ev
	addq	$16, %rsp
	popq	%rbp
	retq
.Ltmp660:
	.size	_ZNSt13__future_base15_Deferred_stateISt12_Bind_simpleIFZ8mmap_mapRKN3Nan20FunctionCallbackInfoIN2v85ValueEEEE3$_0vEEvED2Ev, .Ltmp660-_ZNSt13__future_base15_Deferred_stateISt12_Bind_simpleIFZ8mmap_mapRKN3Nan20FunctionCallbackInfoIN2v85ValueEEEE3$_0vEEvED2Ev
	.cfi_endproc

	.section	.text._ZNSt10unique_ptrINSt13__future_base7_ResultIvEENS0_12_Result_base8_DeleterEED2Ev,"axG",@progbits,_ZNSt10unique_ptrINSt13__future_base7_ResultIvEENS0_12_Result_base8_DeleterEED2Ev,comdat
	.weak	_ZNSt10unique_ptrINSt13__future_base7_ResultIvEENS0_12_Result_base8_DeleterEED2Ev
	.align	16, 0x90
	.type	_ZNSt10unique_ptrINSt13__future_base7_ResultIvEENS0_12_Result_base8_DeleterEED2Ev,@function
_ZNSt10unique_ptrINSt13__future_base7_ResultIvEENS0_12_Result_base8_DeleterEED2Ev: # @_ZNSt10unique_ptrINSt13__future_base7_ResultIvEENS0_12_Result_base8_DeleterEED2Ev
	.cfi_startproc
	.cfi_personality 3, __gxx_personality_v0
.Leh_func_begin107:
	.cfi_lsda 3, .Lexception107
# BB#0:
	pushq	%rbp
.Ltmp664:
	.cfi_def_cfa_offset 16
.Ltmp665:
	.cfi_offset %rbp, -16
	movq	%rsp, %rbp
.Ltmp666:
	.cfi_def_cfa_register %rbp
	subq	$32, %rsp
	movq	%rdi, -8(%rbp)
	movq	-8(%rbp), %rdi
	movq	%rdi, -24(%rbp)         # 8-byte Spill
	callq	_ZSt3getILm0EJPNSt13__future_base7_ResultIvEENS0_12_Result_base8_DeleterEEENSt9__add_refINSt13tuple_elementIXT_ESt5tupleIJDpT0_EEE4typeEE4typeERSB_
	movq	%rax, -16(%rbp)
	movq	-16(%rbp), %rax
	cmpq	$0, (%rax)
	je	.LBB107_3
# BB#1:
	movq	-24(%rbp), %rdi         # 8-byte Reload
	callq	_ZNSt10unique_ptrINSt13__future_base7_ResultIvEENS0_12_Result_base8_DeleterEE11get_deleterEv
	movq	-16(%rbp), %rdi
	movq	(%rdi), %rsi
.Ltmp661:
	movq	%rax, %rdi
	callq	_ZNKSt13__future_base12_Result_base8_DeleterclEPS0_
.Ltmp662:
	jmp	.LBB107_2
.LBB107_2:
	jmp	.LBB107_3
.LBB107_3:
	movq	-16(%rbp), %rax
	movq	$0, (%rax)
	addq	$32, %rsp
	popq	%rbp
	retq
.LBB107_4:
.Ltmp663:
	movl	%edx, %ecx
	movq	%rax, %rdi
	movl	%ecx, -28(%rbp)         # 4-byte Spill
	callq	__clang_call_terminate
.Ltmp667:
	.size	_ZNSt10unique_ptrINSt13__future_base7_ResultIvEENS0_12_Result_base8_DeleterEED2Ev, .Ltmp667-_ZNSt10unique_ptrINSt13__future_base7_ResultIvEENS0_12_Result_base8_DeleterEED2Ev
	.cfi_endproc
.Leh_func_end107:
	.section	.gcc_except_table,"a",@progbits
	.align	4
GCC_except_table107:
.Lexception107:
	.byte	255                     # @LPStart Encoding = omit
	.byte	3                       # @TType Encoding = udata4
	.byte	21                      # @TType base offset
	.byte	3                       # Call site Encoding = udata4
	.byte	13                      # Call site table length
	.long	.Ltmp661-.Leh_func_begin107 # >> Call Site 1 <<
	.long	.Ltmp662-.Ltmp661       #   Call between .Ltmp661 and .Ltmp662
	.long	.Ltmp663-.Leh_func_begin107 #     jumps to .Ltmp663
	.byte	1                       #   On action: 1
	.byte	1                       # >> Action Record 1 <<
                                        #   Catch TypeInfo 1
	.byte	0                       #   No further actions
                                        # >> Catch TypeInfos <<
	.long	0                       # TypeInfo 1
	.align	4

	.text
	.align	16, 0x90
	.type	_ZNSt13__future_base15_Deferred_stateISt12_Bind_simpleIFZ8mmap_mapRKN3Nan20FunctionCallbackInfoIN2v85ValueEEEE3$_0vEEvED0Ev,@function
_ZNSt13__future_base15_Deferred_stateISt12_Bind_simpleIFZ8mmap_mapRKN3Nan20FunctionCallbackInfoIN2v85ValueEEEE3$_0vEEvED0Ev: # @"_ZNSt13__future_base15_Deferred_stateISt12_Bind_simpleIFZ8mmap_mapRKN3Nan20FunctionCallbackInfoIN2v85ValueEEEE3$_0vEEvED0Ev"
	.cfi_startproc
# BB#0:
	pushq	%rbp
.Ltmp668:
	.cfi_def_cfa_offset 16
.Ltmp669:
	.cfi_offset %rbp, -16
	movq	%rsp, %rbp
.Ltmp670:
	.cfi_def_cfa_register %rbp
	subq	$16, %rsp
	movq	%rdi, -8(%rbp)
	movq	-8(%rbp), %rdi
	movq	%rdi, -16(%rbp)         # 8-byte Spill
	callq	_ZNSt13__future_base15_Deferred_stateISt12_Bind_simpleIFZ8mmap_mapRKN3Nan20FunctionCallbackInfoIN2v85ValueEEEE3$_0vEEvED2Ev
	movq	-16(%rbp), %rdi         # 8-byte Reload
	callq	_ZdlPv
	addq	$16, %rsp
	popq	%rbp
	retq
.Ltmp671:
	.size	_ZNSt13__future_base15_Deferred_stateISt12_Bind_simpleIFZ8mmap_mapRKN3Nan20FunctionCallbackInfoIN2v85ValueEEEE3$_0vEEvED0Ev, .Ltmp671-_ZNSt13__future_base15_Deferred_stateISt12_Bind_simpleIFZ8mmap_mapRKN3Nan20FunctionCallbackInfoIN2v85ValueEEEE3$_0vEEvED0Ev
	.cfi_endproc

	.align	16, 0x90
	.type	_ZNSt13__future_base15_Deferred_stateISt12_Bind_simpleIFZ8mmap_mapRKN3Nan20FunctionCallbackInfoIN2v85ValueEEEE3$_0vEEvE17_M_complete_asyncEv,@function
_ZNSt13__future_base15_Deferred_stateISt12_Bind_simpleIFZ8mmap_mapRKN3Nan20FunctionCallbackInfoIN2v85ValueEEEE3$_0vEEvE17_M_complete_asyncEv: # @"_ZNSt13__future_base15_Deferred_stateISt12_Bind_simpleIFZ8mmap_mapRKN3Nan20FunctionCallbackInfoIN2v85ValueEEEE3$_0vEEvE17_M_complete_asyncEv"
	.cfi_startproc
	.cfi_personality 3, __gxx_personality_v0
.Leh_func_begin109:
	.cfi_lsda 3, .Lexception109
# BB#0:
	pushq	%rbp
.Ltmp678:
	.cfi_def_cfa_offset 16
.Ltmp679:
	.cfi_offset %rbp, -16
	movq	%rsp, %rbp
.Ltmp680:
	.cfi_def_cfa_register %rbp
	subq	$128, %rsp
	movq	%rdi, -8(%rbp)
	movq	%rdi, %rax
	movq	%rdi, %rcx
	addq	$112, %rcx
	addq	$120, %rdi
	leaq	-80(%rbp), %rdx
	movq	%rdi, -104(%rbp)        # 8-byte Spill
	movq	%rdx, %rdi
	movq	%rcx, %rsi
	movq	-104(%rbp), %rcx        # 8-byte Reload
	movq	%rdx, -112(%rbp)        # 8-byte Spill
	movq	%rcx, %rdx
	movq	%rax, -120(%rbp)        # 8-byte Spill
	callq	_ZNSt13__future_base14_S_task_setterISt10unique_ptrINS_7_ResultIvEENS_12_Result_base8_DeleterEERSt12_Bind_simpleIFZ8mmap_mapRKN3Nan20FunctionCallbackInfoIN2v85ValueEEEE3$_0vEEEENS_12_Task_setterIT_NSK_12element_type11result_typeEEERSK_OT0_
.Ltmp672:
	leaq	-40(%rbp), %rdi
	movq	-112(%rbp), %rsi        # 8-byte Reload
	callq	_ZNSt8functionIFSt10unique_ptrINSt13__future_base12_Result_baseENS2_8_DeleterEEvEEC2INS1_12_Task_setterIS0_INS1_7_ResultIvEES3_EvEEvEET_
.Ltmp673:
	jmp	.LBB109_1
.LBB109_1:
.Ltmp675:
	leaq	-40(%rbp), %rsi
	movl	$1, %edx
	movq	-120(%rbp), %rdi        # 8-byte Reload
	callq	_ZNSt13__future_base13_State_baseV213_M_set_resultESt8functionIFSt10unique_ptrINS_12_Result_baseENS3_8_DeleterEEvEEb
.Ltmp676:
	jmp	.LBB109_2
.LBB109_2:
	leaq	-40(%rbp), %rdi
	callq	_ZNSt8functionIFSt10unique_ptrINSt13__future_base12_Result_baseENS2_8_DeleterEEvEED2Ev
	leaq	-80(%rbp), %rdi
	callq	_ZNSt13__future_base12_Task_setterISt10unique_ptrINS_7_ResultIvEENS_12_Result_base8_DeleterEEvED2Ev
	addq	$128, %rsp
	popq	%rbp
	retq
.LBB109_3:
.Ltmp674:
	movl	%edx, %ecx
	movq	%rax, -88(%rbp)
	movl	%ecx, -92(%rbp)
	jmp	.LBB109_5
.LBB109_4:
.Ltmp677:
	leaq	-40(%rbp), %rdi
	movl	%edx, %ecx
	movq	%rax, -88(%rbp)
	movl	%ecx, -92(%rbp)
	callq	_ZNSt8functionIFSt10unique_ptrINSt13__future_base12_Result_baseENS2_8_DeleterEEvEED2Ev
.LBB109_5:
	leaq	-80(%rbp), %rdi
	callq	_ZNSt13__future_base12_Task_setterISt10unique_ptrINS_7_ResultIvEENS_12_Result_base8_DeleterEEvED2Ev
# BB#6:
	movq	-88(%rbp), %rdi
	callq	_Unwind_Resume
.Ltmp681:
	.size	_ZNSt13__future_base15_Deferred_stateISt12_Bind_simpleIFZ8mmap_mapRKN3Nan20FunctionCallbackInfoIN2v85ValueEEEE3$_0vEEvE17_M_complete_asyncEv, .Ltmp681-_ZNSt13__future_base15_Deferred_stateISt12_Bind_simpleIFZ8mmap_mapRKN3Nan20FunctionCallbackInfoIN2v85ValueEEEE3$_0vEEvE17_M_complete_asyncEv
	.cfi_endproc
.Leh_func_end109:
	.section	.gcc_except_table,"a",@progbits
	.align	4
GCC_except_table109:
.Lexception109:
	.byte	255                     # @LPStart Encoding = omit
	.byte	3                       # @TType Encoding = udata4
	.asciz	"\266\200\200"          # @TType base offset
	.byte	3                       # Call site Encoding = udata4
	.byte	52                      # Call site table length
	.long	.Leh_func_begin109-.Leh_func_begin109 # >> Call Site 1 <<
	.long	.Ltmp672-.Leh_func_begin109 #   Call between .Leh_func_begin109 and .Ltmp672
	.long	0                       #     has no landing pad
	.byte	0                       #   On action: cleanup
	.long	.Ltmp672-.Leh_func_begin109 # >> Call Site 2 <<
	.long	.Ltmp673-.Ltmp672       #   Call between .Ltmp672 and .Ltmp673
	.long	.Ltmp674-.Leh_func_begin109 #     jumps to .Ltmp674
	.byte	0                       #   On action: cleanup
	.long	.Ltmp675-.Leh_func_begin109 # >> Call Site 3 <<
	.long	.Ltmp676-.Ltmp675       #   Call between .Ltmp675 and .Ltmp676
	.long	.Ltmp677-.Leh_func_begin109 #     jumps to .Ltmp677
	.byte	0                       #   On action: cleanup
	.long	.Ltmp676-.Leh_func_begin109 # >> Call Site 4 <<
	.long	.Leh_func_end109-.Ltmp676 #   Call between .Ltmp676 and .Leh_func_end109
	.long	0                       #     has no landing pad
	.byte	0                       #   On action: cleanup
	.align	4

	.text
	.align	16, 0x90
	.type	_ZNKSt13__future_base15_Deferred_stateISt12_Bind_simpleIFZ8mmap_mapRKN3Nan20FunctionCallbackInfoIN2v85ValueEEEE3$_0vEEvE15_M_has_deferredEv,@function
_ZNKSt13__future_base15_Deferred_stateISt12_Bind_simpleIFZ8mmap_mapRKN3Nan20FunctionCallbackInfoIN2v85ValueEEEE3$_0vEEvE15_M_has_deferredEv: # @"_ZNKSt13__future_base15_Deferred_stateISt12_Bind_simpleIFZ8mmap_mapRKN3Nan20FunctionCallbackInfoIN2v85ValueEEEE3$_0vEEvE15_M_has_deferredEv"
	.cfi_startproc
# BB#0:
	pushq	%rbp
.Ltmp682:
	.cfi_def_cfa_offset 16
.Ltmp683:
	.cfi_offset %rbp, -16
	movq	%rsp, %rbp
.Ltmp684:
	.cfi_def_cfa_register %rbp
	subq	$16, %rsp
	movq	%rdi, -8(%rbp)
	movq	-8(%rbp), %rdi
	addq	$112, %rdi
	callq	_ZNKSt10unique_ptrINSt13__future_base7_ResultIvEENS0_12_Result_base8_DeleterEEcvbEv
	andb	$1, %al
	movzbl	%al, %eax
	addq	$16, %rsp
	popq	%rbp
	retq
.Ltmp685:
	.size	_ZNKSt13__future_base15_Deferred_stateISt12_Bind_simpleIFZ8mmap_mapRKN3Nan20FunctionCallbackInfoIN2v85ValueEEEE3$_0vEEvE15_M_has_deferredEv, .Ltmp685-_ZNKSt13__future_base15_Deferred_stateISt12_Bind_simpleIFZ8mmap_mapRKN3Nan20FunctionCallbackInfoIN2v85ValueEEEE3$_0vEEvE15_M_has_deferredEv
	.cfi_endproc

	.section	.text._ZNKSt10unique_ptrINSt13__future_base7_ResultIvEENS0_12_Result_base8_DeleterEEcvbEv,"axG",@progbits,_ZNKSt10unique_ptrINSt13__future_base7_ResultIvEENS0_12_Result_base8_DeleterEEcvbEv,comdat
	.weak	_ZNKSt10unique_ptrINSt13__future_base7_ResultIvEENS0_12_Result_base8_DeleterEEcvbEv
	.align	16, 0x90
	.type	_ZNKSt10unique_ptrINSt13__future_base7_ResultIvEENS0_12_Result_base8_DeleterEEcvbEv,@function
_ZNKSt10unique_ptrINSt13__future_base7_ResultIvEENS0_12_Result_base8_DeleterEEcvbEv: # @_ZNKSt10unique_ptrINSt13__future_base7_ResultIvEENS0_12_Result_base8_DeleterEEcvbEv
	.cfi_startproc
# BB#0:
	pushq	%rbp
.Ltmp686:
	.cfi_def_cfa_offset 16
.Ltmp687:
	.cfi_offset %rbp, -16
	movq	%rsp, %rbp
.Ltmp688:
	.cfi_def_cfa_register %rbp
	subq	$16, %rsp
	movq	%rdi, -8(%rbp)
	callq	_ZNKSt10unique_ptrINSt13__future_base7_ResultIvEENS0_12_Result_base8_DeleterEE3getEv
	testq	%rax, %rax
	setne	%cl
	andb	$1, %cl
	movzbl	%cl, %eax
	addq	$16, %rsp
	popq	%rbp
	retq
.Ltmp689:
	.size	_ZNKSt10unique_ptrINSt13__future_base7_ResultIvEENS0_12_Result_base8_DeleterEEcvbEv, .Ltmp689-_ZNKSt10unique_ptrINSt13__future_base7_ResultIvEENS0_12_Result_base8_DeleterEEcvbEv
	.cfi_endproc

	.section	.text._ZNKSt10unique_ptrINSt13__future_base7_ResultIvEENS0_12_Result_base8_DeleterEE3getEv,"axG",@progbits,_ZNKSt10unique_ptrINSt13__future_base7_ResultIvEENS0_12_Result_base8_DeleterEE3getEv,comdat
	.weak	_ZNKSt10unique_ptrINSt13__future_base7_ResultIvEENS0_12_Result_base8_DeleterEE3getEv
	.align	16, 0x90
	.type	_ZNKSt10unique_ptrINSt13__future_base7_ResultIvEENS0_12_Result_base8_DeleterEE3getEv,@function
_ZNKSt10unique_ptrINSt13__future_base7_ResultIvEENS0_12_Result_base8_DeleterEE3getEv: # @_ZNKSt10unique_ptrINSt13__future_base7_ResultIvEENS0_12_Result_base8_DeleterEE3getEv
	.cfi_startproc
# BB#0:
	pushq	%rbp
.Ltmp690:
	.cfi_def_cfa_offset 16
.Ltmp691:
	.cfi_offset %rbp, -16
	movq	%rsp, %rbp
.Ltmp692:
	.cfi_def_cfa_register %rbp
	subq	$16, %rsp
	movq	%rdi, -8(%rbp)
	movq	-8(%rbp), %rdi
	callq	_ZSt3getILm0EJPNSt13__future_base7_ResultIvEENS0_12_Result_base8_DeleterEEENSt11__add_c_refINSt13tuple_elementIXT_ESt5tupleIJDpT0_EEE4typeEE4typeERKSB_
	movq	(%rax), %rax
	addq	$16, %rsp
	popq	%rbp
	retq
.Ltmp693:
	.size	_ZNKSt10unique_ptrINSt13__future_base7_ResultIvEENS0_12_Result_base8_DeleterEE3getEv, .Ltmp693-_ZNKSt10unique_ptrINSt13__future_base7_ResultIvEENS0_12_Result_base8_DeleterEE3getEv
	.cfi_endproc

	.section	.text._ZSt3getILm0EJPNSt13__future_base7_ResultIvEENS0_12_Result_base8_DeleterEEENSt11__add_c_refINSt13tuple_elementIXT_ESt5tupleIJDpT0_EEE4typeEE4typeERKSB_,"axG",@progbits,_ZSt3getILm0EJPNSt13__future_base7_ResultIvEENS0_12_Result_base8_DeleterEEENSt11__add_c_refINSt13tuple_elementIXT_ESt5tupleIJDpT0_EEE4typeEE4typeERKSB_,comdat
	.weak	_ZSt3getILm0EJPNSt13__future_base7_ResultIvEENS0_12_Result_base8_DeleterEEENSt11__add_c_refINSt13tuple_elementIXT_ESt5tupleIJDpT0_EEE4typeEE4typeERKSB_
	.align	16, 0x90
	.type	_ZSt3getILm0EJPNSt13__future_base7_ResultIvEENS0_12_Result_base8_DeleterEEENSt11__add_c_refINSt13tuple_elementIXT_ESt5tupleIJDpT0_EEE4typeEE4typeERKSB_,@function
_ZSt3getILm0EJPNSt13__future_base7_ResultIvEENS0_12_Result_base8_DeleterEEENSt11__add_c_refINSt13tuple_elementIXT_ESt5tupleIJDpT0_EEE4typeEE4typeERKSB_: # @_ZSt3getILm0EJPNSt13__future_base7_ResultIvEENS0_12_Result_base8_DeleterEEENSt11__add_c_refINSt13tuple_elementIXT_ESt5tupleIJDpT0_EEE4typeEE4typeERKSB_
	.cfi_startproc
# BB#0:
	pushq	%rbp
.Ltmp694:
	.cfi_def_cfa_offset 16
.Ltmp695:
	.cfi_offset %rbp, -16
	movq	%rsp, %rbp
.Ltmp696:
	.cfi_def_cfa_register %rbp
	subq	$16, %rsp
	movq	%rdi, -8(%rbp)
	movq	-8(%rbp), %rdi
	callq	_ZSt12__get_helperILm0EPNSt13__future_base7_ResultIvEEJNS0_12_Result_base8_DeleterEEENSt11__add_c_refIT0_E4typeERKSt11_Tuple_implIXT_EJS7_DpT1_EE
	addq	$16, %rsp
	popq	%rbp
	retq
.Ltmp697:
	.size	_ZSt3getILm0EJPNSt13__future_base7_ResultIvEENS0_12_Result_base8_DeleterEEENSt11__add_c_refINSt13tuple_elementIXT_ESt5tupleIJDpT0_EEE4typeEE4typeERKSB_, .Ltmp697-_ZSt3getILm0EJPNSt13__future_base7_ResultIvEENS0_12_Result_base8_DeleterEEENSt11__add_c_refINSt13tuple_elementIXT_ESt5tupleIJDpT0_EEE4typeEE4typeERKSB_
	.cfi_endproc

	.section	.text._ZSt12__get_helperILm0EPNSt13__future_base7_ResultIvEEJNS0_12_Result_base8_DeleterEEENSt11__add_c_refIT0_E4typeERKSt11_Tuple_implIXT_EJS7_DpT1_EE,"axG",@progbits,_ZSt12__get_helperILm0EPNSt13__future_base7_ResultIvEEJNS0_12_Result_base8_DeleterEEENSt11__add_c_refIT0_E4typeERKSt11_Tuple_implIXT_EJS7_DpT1_EE,comdat
	.weak	_ZSt12__get_helperILm0EPNSt13__future_base7_ResultIvEEJNS0_12_Result_base8_DeleterEEENSt11__add_c_refIT0_E4typeERKSt11_Tuple_implIXT_EJS7_DpT1_EE
	.align	16, 0x90
	.type	_ZSt12__get_helperILm0EPNSt13__future_base7_ResultIvEEJNS0_12_Result_base8_DeleterEEENSt11__add_c_refIT0_E4typeERKSt11_Tuple_implIXT_EJS7_DpT1_EE,@function
_ZSt12__get_helperILm0EPNSt13__future_base7_ResultIvEEJNS0_12_Result_base8_DeleterEEENSt11__add_c_refIT0_E4typeERKSt11_Tuple_implIXT_EJS7_DpT1_EE: # @_ZSt12__get_helperILm0EPNSt13__future_base7_ResultIvEEJNS0_12_Result_base8_DeleterEEENSt11__add_c_refIT0_E4typeERKSt11_Tuple_implIXT_EJS7_DpT1_EE
	.cfi_startproc
# BB#0:
	pushq	%rbp
.Ltmp698:
	.cfi_def_cfa_offset 16
.Ltmp699:
	.cfi_offset %rbp, -16
	movq	%rsp, %rbp
.Ltmp700:
	.cfi_def_cfa_register %rbp
	subq	$16, %rsp
	movq	%rdi, -8(%rbp)
	movq	-8(%rbp), %rdi
	callq	_ZNSt11_Tuple_implILm0EJPNSt13__future_base7_ResultIvEENS0_12_Result_base8_DeleterEEE7_M_headERKS6_
	addq	$16, %rsp
	popq	%rbp
	retq
.Ltmp701:
	.size	_ZSt12__get_helperILm0EPNSt13__future_base7_ResultIvEEJNS0_12_Result_base8_DeleterEEENSt11__add_c_refIT0_E4typeERKSt11_Tuple_implIXT_EJS7_DpT1_EE, .Ltmp701-_ZSt12__get_helperILm0EPNSt13__future_base7_ResultIvEEJNS0_12_Result_base8_DeleterEEENSt11__add_c_refIT0_E4typeERKSt11_Tuple_implIXT_EJS7_DpT1_EE
	.cfi_endproc

	.section	.text._ZNSt11_Tuple_implILm0EJPNSt13__future_base7_ResultIvEENS0_12_Result_base8_DeleterEEE7_M_headERKS6_,"axG",@progbits,_ZNSt11_Tuple_implILm0EJPNSt13__future_base7_ResultIvEENS0_12_Result_base8_DeleterEEE7_M_headERKS6_,comdat
	.weak	_ZNSt11_Tuple_implILm0EJPNSt13__future_base7_ResultIvEENS0_12_Result_base8_DeleterEEE7_M_headERKS6_
	.align	16, 0x90
	.type	_ZNSt11_Tuple_implILm0EJPNSt13__future_base7_ResultIvEENS0_12_Result_base8_DeleterEEE7_M_headERKS6_,@function
_ZNSt11_Tuple_implILm0EJPNSt13__future_base7_ResultIvEENS0_12_Result_base8_DeleterEEE7_M_headERKS6_: # @_ZNSt11_Tuple_implILm0EJPNSt13__future_base7_ResultIvEENS0_12_Result_base8_DeleterEEE7_M_headERKS6_
	.cfi_startproc
# BB#0:
	pushq	%rbp
.Ltmp702:
	.cfi_def_cfa_offset 16
.Ltmp703:
	.cfi_offset %rbp, -16
	movq	%rsp, %rbp
.Ltmp704:
	.cfi_def_cfa_register %rbp
	subq	$16, %rsp
	movq	%rdi, -8(%rbp)
	movq	-8(%rbp), %rdi
	callq	_ZNSt10_Head_baseILm0EPNSt13__future_base7_ResultIvEELb0EE7_M_headERKS4_
	addq	$16, %rsp
	popq	%rbp
	retq
.Ltmp705:
	.size	_ZNSt11_Tuple_implILm0EJPNSt13__future_base7_ResultIvEENS0_12_Result_base8_DeleterEEE7_M_headERKS6_, .Ltmp705-_ZNSt11_Tuple_implILm0EJPNSt13__future_base7_ResultIvEENS0_12_Result_base8_DeleterEEE7_M_headERKS6_
	.cfi_endproc

	.section	.text._ZNSt10_Head_baseILm0EPNSt13__future_base7_ResultIvEELb0EE7_M_headERKS4_,"axG",@progbits,_ZNSt10_Head_baseILm0EPNSt13__future_base7_ResultIvEELb0EE7_M_headERKS4_,comdat
	.weak	_ZNSt10_Head_baseILm0EPNSt13__future_base7_ResultIvEELb0EE7_M_headERKS4_
	.align	16, 0x90
	.type	_ZNSt10_Head_baseILm0EPNSt13__future_base7_ResultIvEELb0EE7_M_headERKS4_,@function
_ZNSt10_Head_baseILm0EPNSt13__future_base7_ResultIvEELb0EE7_M_headERKS4_: # @_ZNSt10_Head_baseILm0EPNSt13__future_base7_ResultIvEELb0EE7_M_headERKS4_
	.cfi_startproc
# BB#0:
	pushq	%rbp
.Ltmp706:
	.cfi_def_cfa_offset 16
.Ltmp707:
	.cfi_offset %rbp, -16
	movq	%rsp, %rbp
.Ltmp708:
	.cfi_def_cfa_register %rbp
	movq	%rdi, -8(%rbp)
	movq	-8(%rbp), %rax
	popq	%rbp
	retq
.Ltmp709:
	.size	_ZNSt10_Head_baseILm0EPNSt13__future_base7_ResultIvEELb0EE7_M_headERKS4_, .Ltmp709-_ZNSt10_Head_baseILm0EPNSt13__future_base7_ResultIvEELb0EE7_M_headERKS4_
	.cfi_endproc

	.section	.text._ZNSt13__future_base13_State_baseV213_M_set_resultESt8functionIFSt10unique_ptrINS_12_Result_baseENS3_8_DeleterEEvEEb,"axG",@progbits,_ZNSt13__future_base13_State_baseV213_M_set_resultESt8functionIFSt10unique_ptrINS_12_Result_baseENS3_8_DeleterEEvEEb,comdat
	.weak	_ZNSt13__future_base13_State_baseV213_M_set_resultESt8functionIFSt10unique_ptrINS_12_Result_baseENS3_8_DeleterEEvEEb
	.align	16, 0x90
	.type	_ZNSt13__future_base13_State_baseV213_M_set_resultESt8functionIFSt10unique_ptrINS_12_Result_baseENS3_8_DeleterEEvEEb,@function
_ZNSt13__future_base13_State_baseV213_M_set_resultESt8functionIFSt10unique_ptrINS_12_Result_baseENS3_8_DeleterEEvEEb: # @_ZNSt13__future_base13_State_baseV213_M_set_resultESt8functionIFSt10unique_ptrINS_12_Result_baseENS3_8_DeleterEEvEEb
	.cfi_startproc
# BB#0:
	pushq	%rbp
.Ltmp710:
	.cfi_def_cfa_offset 16
.Ltmp711:
	.cfi_offset %rbp, -16
	movq	%rsp, %rbp
.Ltmp712:
	.cfi_def_cfa_register %rbp
	subq	$80, %rsp
	movb	%dl, %al
	leaq	-48(%rbp), %rcx
	movq	%rdi, -8(%rbp)
	andb	$1, %al
	movb	%al, -9(%rbp)
	movq	-8(%rbp), %rdi
	movb	$0, -10(%rbp)
	movq	%rdi, %r8
	addq	$108, %r8
	movq	$0, -24(%rbp)
	movq	$_ZNSt13__future_base13_State_baseV29_M_do_setERSt8functionIFSt10unique_ptrINS_12_Result_baseENS3_8_DeleterEEvEERb, -32(%rbp)
	movq	%rdi, -40(%rbp)
	movq	%rdi, -64(%rbp)         # 8-byte Spill
	movq	%rcx, %rdi
	movq	%r8, -72(%rbp)          # 8-byte Spill
	callq	_ZSt3refISt8functionIFSt10unique_ptrINSt13__future_base12_Result_baseENS3_8_DeleterEEvEEESt17reference_wrapperIT_ERS9_
	leaq	-56(%rbp), %rdi
	leaq	-10(%rbp), %rsi
	callq	_ZSt3refIbESt17reference_wrapperIT_ERS1_
	leaq	-32(%rbp), %rsi
	leaq	-40(%rbp), %rdx
	leaq	-48(%rbp), %rcx
	leaq	-56(%rbp), %r8
	movq	-72(%rbp), %rdi         # 8-byte Reload
	callq	_ZSt9call_onceIMNSt13__future_base13_State_baseV2EFvRSt8functionIFSt10unique_ptrINS0_12_Result_baseENS4_8_DeleterEEvEERbEJPS1_St17reference_wrapperIS8_ESE_IbEEEvRSt9once_flagOT_DpOT0_
	testb	$1, -10(%rbp)
	je	.LBB117_2
# BB#1:
	movq	-64(%rbp), %rax         # 8-byte Reload
	addq	$56, %rax
	movq	%rax, %rdi
	callq	_ZNSt18condition_variable10notify_allEv
	jmp	.LBB117_5
.LBB117_2:
	testb	$1, -9(%rbp)
	jne	.LBB117_4
# BB#3:
	movl	$2, %edi
	callq	_ZSt20__throw_future_errori
.LBB117_4:
	jmp	.LBB117_5
.LBB117_5:
	addq	$80, %rsp
	popq	%rbp
	retq
.Ltmp713:
